ccopy_reg
_reconstructor
p1
(cpytwixt.node_twixt
Twixt
p2
c__builtin__
object
p3
NtRp4
(dp5
S'current_player'
p6
S'Alex'
p7
sS'player2'
p8
S'Amber'
p9
sS'player1'
p10
g7
sS'nodes'
p11
(dp12
(I7
I3
tp13
g1
(cpytwixt.node_twixt
Node
p14
g3
NtRp15
(dp16
S'y'
I3
sS'x'
I7
sS'connected_nodes'
p17
c__builtin__
set
p18
((ltRp19
sS'reservee'
p20
NsS'owner'
p21
Nsbs(I16
I9
tp22
g1
(g14
g3
NtRp23
(dp24
S'y'
I9
sS'x'
I16
sg17
g18
((ltRp25
sg20
Nsg21
Nsbs(I19
I4
tp26
g1
(g14
g3
NtRp27
(dp28
S'y'
I4
sS'x'
I19
sg17
g18
((ltRp29
sg20
Nsg21
Nsbs(I17
I20
tp30
g1
(g14
g3
NtRp31
(dp32
S'y'
I20
sS'x'
I17
sg17
g18
((ltRp33
sg20
Nsg21
Nsbs(I22
I19
tp34
g1
(g14
g3
NtRp35
(dp36
S'y'
I19
sS'x'
I22
sg17
g18
((ltRp37
sg20
Nsg21
Nsbs(I20
I7
tp38
g1
(g14
g3
NtRp39
(dp40
S'y'
I7
sS'x'
I20
sg17
g18
((ltRp41
sg20
Nsg21
Nsbs(I18
I19
tp42
g1
(g14
g3
NtRp43
(dp44
S'y'
I19
sS'x'
I18
sg17
g18
((ltRp45
sg20
Nsg21
Nsbs(I21
I6
tp46
g1
(g14
g3
NtRp47
(dp48
S'y'
I6
sS'x'
I21
sg17
g18
((ltRp49
sg20
Nsg21
Nsbs(I8
I5
tp50
g1
(g14
g3
NtRp51
(dp52
S'y'
I5
sS'x'
I8
sg17
g18
((ltRp53
sg20
Nsg21
Nsbs(I9
I0
tp54
g1
(g14
g3
NtRp55
(dp56
S'y'
I0
sS'x'
I9
sg17
g18
((ltRp57
sg20
g9
sg21
Nsbs(I10
I7
tp58
g1
(g14
g3
NtRp59
(dp60
S'y'
I7
sS'x'
I10
sg17
g18
((ltRp61
sg20
Nsg21
Nsbs(I11
I22
tp62
g1
(g14
g3
NtRp63
(dp64
S'y'
I22
sS'x'
I11
sg17
g18
((ltRp65
sg20
Nsg21
Nsbs(I0
I17
tp66
g1
(g14
g3
NtRp67
(dp68
S'y'
I17
sS'x'
I0
sg17
g18
((ltRp69
sg20
g7
sg21
Nsbs(I14
I1
tp70
g1
(g14
g3
NtRp71
(dp72
S'y'
I1
sS'x'
I14
sg17
g18
((ltRp73
sg20
Nsg21
Nsbs(I12
I17
tp74
g1
(g14
g3
NtRp75
(dp76
S'y'
I17
sS'x'
I12
sg17
g18
((ltRp77
sg20
Nsg21
Nsbs(I15
I4
tp78
g1
(g14
g3
NtRp79
(dp80
S'y'
I4
sS'x'
I15
sg17
g18
((ltRp81
sg20
Nsg21
Nsbs(I13
I20
tp82
g1
(g14
g3
NtRp83
(dp84
S'y'
I20
sS'x'
I13
sg17
g18
((ltRp85
sg20
Nsg21
Nsbs(I3
I2
tp86
g1
(g14
g3
NtRp87
(dp88
S'y'
I2
sS'x'
I3
sg17
g18
((ltRp89
sg20
Nsg21
Nsbs(I4
I5
tp90
g1
(g14
g3
NtRp91
(dp92
S'y'
I5
sS'x'
I4
sg17
g18
((ltRp93
sg20
Nsg21
Nsbs(I16
I0
tp94
g1
(g14
g3
NtRp95
(dp96
S'y'
I0
sS'x'
I16
sg17
g18
((ltRp97
sg20
g9
sg21
Nsbs(I6
I23
tp98
g1
(g14
g3
NtRp99
(dp100
S'y'
I23
sS'x'
I6
sg17
g18
((ltRp101
sg20
g9
sg21
Nsbs(I19
I13
tp102
g1
(g14
g3
NtRp103
(dp104
S'y'
I13
sS'x'
I19
sg17
g18
((ltRp105
sg20
Nsg21
Nsbs(I17
I13
tp106
g1
(g14
g3
NtRp107
(dp108
S'y'
I13
sS'x'
I17
sg17
g18
((ltRp109
sg20
Nsg21
Nsbs(I7
I22
tp110
g1
(g14
g3
NtRp111
(dp112
S'y'
I22
sS'x'
I7
sg17
g18
((ltRp113
sg20
Nsg21
Nsbs(I20
I14
tp114
g1
(g14
g3
NtRp115
(dp116
S'y'
I14
sS'x'
I20
sg17
g18
((ltRp117
sg20
Nsg21
Nsbs(I18
I10
tp118
g1
(g14
g3
NtRp119
(dp120
S'y'
I10
sS'x'
I18
sg17
g18
((ltRp121
sg20
Nsg21
Nsbs(I23
I19
tp122
g1
(g14
g3
NtRp123
(dp124
S'y'
I19
sS'x'
I23
sg17
g18
((ltRp125
sg20
g7
sg21
Nsbs(I21
I15
tp126
g1
(g14
g3
NtRp127
(dp128
S'y'
I15
sS'x'
I21
sg17
g18
((ltRp129
sg20
Nsg21
Nsbs(I8
I12
tp130
g1
(g14
g3
NtRp131
(dp132
S'y'
I12
sS'x'
I8
sg17
g18
((ltRp133
sg20
Nsg21
Nsbs(I22
I12
tp134
g1
(g14
g3
NtRp135
(dp136
S'y'
I12
sS'x'
I22
sg17
g18
((ltRp137
sg20
Nsg21
Nsbs(I9
I9
tp138
g1
(g14
g3
NtRp139
(dp140
S'y'
I9
sS'x'
I9
sg17
g18
((ltRp141
sg20
Nsg21
Nsbs(I23
I9
tp142
g1
(g14
g3
NtRp143
(dp144
S'y'
I9
sS'x'
I23
sg17
g18
((ltRp145
sg20
g7
sg21
Nsbs(I10
I14
tp146
g1
(g14
g3
NtRp147
(dp148
S'y'
I14
sS'x'
I10
sg17
g18
((ltRp149
sg20
Nsg21
Nsbs(I8
I18
tp150
g1
(g14
g3
NtRp151
(dp152
S'y'
I18
sS'x'
I8
sg17
g18
((ltRp153
sg20
Nsg21
Nsbs(I11
I15
tp154
g1
(g14
g3
NtRp155
(dp156
S'y'
I15
sS'x'
I11
sg17
g18
((ltRp157
sg20
Nsg21
Nsbs(I9
I19
tp158
g1
(g14
g3
NtRp159
(dp160
S'y'
I19
sS'x'
I9
sg17
g18
((ltRp161
sg20
Nsg21
Nsbs(I14
I8
tp162
g1
(g14
g3
NtRp163
(dp164
S'y'
I8
sS'x'
I14
sg17
g18
((ltRp165
sg20
Nsg21
Nsbs(I12
I8
tp166
g1
(g14
g3
NtRp167
(dp168
S'y'
I8
sS'x'
I12
sg17
g18
((ltRp169
sg20
Nsg21
Nsbs(I1
I21
tp170
g1
(g14
g3
NtRp171
(dp172
S'y'
I21
sS'x'
I1
sg17
g18
((ltRp173
sg20
Nsg21
Nsbs(I15
I13
tp174
g1
(g14
g3
NtRp175
(dp176
S'y'
I13
sS'x'
I15
sg17
g18
((ltRp177
sg20
Nsg21
Nsbs(I13
I13
tp178
g1
(g14
g3
NtRp179
(dp180
S'y'
I13
sS'x'
I13
sg17
g18
((ltRp181
sg20
Nsg21
Nsbs(I2
I18
tp182
g1
(g14
g3
NtRp183
(dp184
S'y'
I18
sS'x'
I2
sg17
g18
((ltRp185
sg20
Nsg21
Nsbs(I0
I14
tp186
g1
(g14
g3
NtRp187
(dp188
S'y'
I14
sS'x'
I0
sg17
g18
((ltRp189
sg20
g7
sg21
Nsbs(I3
I11
tp190
g1
(g14
g3
NtRp191
(dp192
S'y'
I11
sS'x'
I3
sg17
g18
((ltRp193
sg20
Nsg21
Nsbs(I1
I15
tp194
g1
(g14
g3
NtRp195
(dp196
S'y'
I15
sS'x'
I1
sg17
g18
((ltRp197
sg20
Nsg21
Nsbs(I4
I12
tp198
g1
(g14
g3
NtRp199
(dp200
S'y'
I12
sS'x'
I4
sg17
g18
((ltRp201
sg20
Nsg21
Nsbs(I2
I12
tp202
g1
(g14
g3
NtRp203
(dp204
S'y'
I12
sS'x'
I2
sg17
g18
((ltRp205
sg20
Nsg21
Nsbs(I5
I1
tp206
g1
(g14
g3
NtRp207
(dp208
S'y'
I1
sS'x'
I5
sg17
g18
((ltRp209
sg20
Nsg21
Nsbs(I3
I17
tp210
g1
(g14
g3
NtRp211
(dp212
S'y'
I17
sS'x'
I3
sg17
g18
((ltRp213
sg20
Nsg21
Nsbs(I16
I7
tp214
g1
(g14
g3
NtRp215
(dp216
S'y'
I7
sS'x'
I16
sg17
g18
((ltRp217
sg20
Nsg21
Nsbs(I6
I14
tp218
g1
(g14
g3
NtRp219
(dp220
S'y'
I14
sS'x'
I6
sg17
g18
((ltRp221
sg20
Nsg21
Nsbs(I19
I18
tp222
g1
(g14
g3
NtRp223
(dp224
S'y'
I18
sS'x'
I19
sg17
g18
((ltRp225
sg20
Nsg21
Nsbs(I17
I6
tp226
g1
(g14
g3
NtRp227
(dp228
S'y'
I6
sS'x'
I17
sg17
g18
((ltRp229
sg20
Nsg21
Nsbs(I7
I15
tp230
g1
(g14
g3
NtRp231
(dp232
S'y'
I15
sS'x'
I7
sg17
g18
((ltRp233
sg20
Nsg21
Nsbs(I20
I21
tp234
g1
(g14
g3
NtRp235
(dp236
S'y'
I21
sS'x'
I20
sg17
g18
((ltRp237
sg20
Nsg21
Nsbs(I18
I5
tp238
g1
(g14
g3
NtRp239
(dp240
S'y'
I5
sS'x'
I18
sg17
g18
((ltRp241
sg20
Nsg21
Nsbs(I21
I8
tp242
g1
(g14
g3
NtRp243
(dp244
S'y'
I8
sS'x'
I21
sg17
g18
((ltRp245
sg20
Nsg21
Nsbs(I22
I7
tp246
g1
(g14
g3
NtRp247
(dp248
S'y'
I7
sS'x'
I22
sg17
g18
((ltRp249
sg20
Nsg21
Nsbs(I23
I6
tp250
g1
(g14
g3
NtRp251
(dp252
S'y'
I6
sS'x'
I23
sg17
g18
((ltRp253
sg20
g7
sg21
Nsbs(I10
I9
tp254
g1
(g14
g3
NtRp255
(dp256
S'y'
I9
sS'x'
I10
sg17
g18
((ltRp257
sg20
Nsg21
Nsbs(I11
I4
tp258
g1
(g14
g3
NtRp259
(dp260
S'y'
I4
sS'x'
I11
sg17
g18
((ltRp261
sg20
Nsg21
Nsbs(I9
I20
tp262
g1
(g14
g3
NtRp263
(dp264
S'y'
I20
sS'x'
I9
sg17
g18
((ltRp265
sg20
Nsg21
Nsbs(I14
I19
tp266
g1
(g14
g3
NtRp267
(dp268
S'y'
I19
sS'x'
I14
sg17
g18
((ltRp269
sg20
Nsg21
Nsbs(I12
I7
tp270
g1
(g14
g3
NtRp271
(dp272
S'y'
I7
sS'x'
I12
sg17
g18
((ltRp273
sg20
Nsg21
Nsbs(I10
I19
tp274
g1
(g14
g3
NtRp275
(dp276
S'y'
I19
sS'x'
I10
sg17
g18
((ltRp277
sg20
Nsg21
Nsbs(I15
I10
tp278
g1
(g14
g3
NtRp279
(dp280
S'y'
I10
sS'x'
I15
sg17
g18
((ltRp281
sg20
Nsg21
Nsbs(I13
I6
tp282
g1
(g14
g3
NtRp283
(dp284
S'y'
I6
sS'x'
I13
sg17
g18
((ltRp285
sg20
Nsg21
Nsbs(I0
I5
tp286
g1
(g14
g3
NtRp287
(dp288
S'y'
I5
sS'x'
I0
sg17
g18
((ltRp289
sg20
g7
sg21
Nsbs(I1
I0
tp290
g1
(g14
g3
NtRp291
(dp292
S'y'
I0
sS'x'
I1
sg17
g18
((ltRp293
sg20
g9
sg21
Nsbs(I4
I11
tp294
g1
(g14
g3
NtRp295
(dp296
S'y'
I11
sS'x'
I4
sg17
g18
((ltRp297
sg20
Nsg21
Nsbs(I2
I7
tp298
g1
(g14
g3
NtRp299
(dp300
S'y'
I7
sS'x'
I2
sg17
g18
((ltRp301
sg20
Nsg21
Nsbs(I5
I10
tp302
g1
(g14
g3
NtRp303
(dp304
S'y'
I10
sS'x'
I5
sg17
g18
((ltRp305
sg20
Nsg21
Nsbs(I3
I22
tp306
g1
(g14
g3
NtRp307
(dp308
S'y'
I22
sS'x'
I3
sg17
g18
((ltRp309
sg20
Nsg21
Nsbs(I6
I1
tp310
g1
(g14
g3
NtRp311
(dp312
S'y'
I1
sS'x'
I6
sg17
g18
((ltRp313
sg20
Nsg21
Nsbs(I4
I17
tp314
g1
(g14
g3
NtRp315
(dp316
S'y'
I17
sS'x'
I4
sg17
g18
((ltRp317
sg20
Nsg21
Nsbs(I7
I4
tp318
g1
(g14
g3
NtRp319
(dp320
S'y'
I4
sS'x'
I7
sg17
g18
((ltRp321
sg20
Nsg21
Nsbs(I5
I20
tp322
g1
(g14
g3
NtRp323
(dp324
S'y'
I20
sS'x'
I5
sg17
g18
((ltRp325
sg20
Nsg21
Nsbs(I16
I20
tp326
g1
(g14
g3
NtRp327
(dp328
S'y'
I20
sS'x'
I16
sg17
g18
((ltRp329
sg20
Nsg21
Nsbs(I21
I17
tp330
g1
(g14
g3
NtRp331
(dp332
S'y'
I17
sS'x'
I21
sg17
g18
((ltRp333
sg20
Nsg21
Nsbs(I19
I1
tp334
g1
(g14
g3
NtRp335
(dp336
S'y'
I1
sS'x'
I19
sg17
g18
((ltRp337
sg20
Nsg21
Nsbs(I17
I17
tp338
g1
(g14
g3
NtRp339
(dp340
S'y'
I17
sS'x'
I17
sg17
g18
((ltRp341
sg20
Nsg21
Nsbs(I18
I22
tp342
g1
(g14
g3
NtRp343
(dp344
S'y'
I22
sS'x'
I18
sg17
g18
((ltRp345
sg20
Nsg21
Nsbs(I8
I0
tp346
g1
(g14
g3
NtRp347
(dp348
S'y'
I0
sS'x'
I8
sg17
g18
((ltRp349
sg20
g9
sg21
Nsbs(I15
I19
tp350
g1
(g14
g3
NtRp351
(dp352
S'y'
I19
sS'x'
I15
sg17
g18
((ltRp353
sg20
Nsg21
Nsbs(I11
I19
tp354
g1
(g14
g3
NtRp355
(dp356
S'y'
I19
sS'x'
I11
sg17
g18
((ltRp357
sg20
Nsg21
Nsbs(I12
I20
tp358
g1
(g14
g3
NtRp359
(dp360
S'y'
I20
sS'x'
I12
sg17
g18
((ltRp361
sg20
Nsg21
Nsbs(I16
I11
tp362
g1
(g14
g3
NtRp363
(dp364
S'y'
I11
sS'x'
I16
sg17
g18
((ltRp365
sg20
Nsg21
Nsbs(I6
I18
tp366
g1
(g14
g3
NtRp367
(dp368
S'y'
I18
sS'x'
I6
sg17
g18
((ltRp369
sg20
Nsg21
Nsbs(I19
I6
tp370
g1
(g14
g3
NtRp371
(dp372
S'y'
I6
sS'x'
I19
sg17
g18
((ltRp373
sg20
Nsg21
Nsbs(I17
I10
tp374
g1
(g14
g3
NtRp375
(dp376
S'y'
I10
sS'x'
I17
sg17
g18
((ltRp377
sg20
Nsg21
Nsbs(I22
I17
tp378
g1
(g14
g3
NtRp379
(dp380
S'y'
I17
sS'x'
I22
sg17
g18
((ltRp381
sg20
Nsg21
Nsbs(I20
I1
tp382
g1
(g14
g3
NtRp383
(dp384
S'y'
I1
sS'x'
I20
sg17
g18
((ltRp385
sg20
Nsg21
Nsbs(I18
I17
tp386
g1
(g14
g3
NtRp387
(dp388
S'y'
I17
sS'x'
I18
sg17
g18
((ltRp389
sg20
Nsg21
Nsbs(I23
I20
tp390
g1
(g14
g3
NtRp391
(dp392
S'y'
I20
sS'x'
I23
sg17
g18
((ltRp393
sg20
g7
sg21
Nsbs(I21
I4
tp394
g1
(g14
g3
NtRp395
(dp396
S'y'
I4
sS'x'
I21
sg17
g18
((ltRp397
sg20
Nsg21
Nsbs(I8
I7
tp398
g1
(g14
g3
NtRp399
(dp400
S'y'
I7
sS'x'
I8
sg17
g18
((ltRp401
sg20
Nsg21
Nsbs(I22
I11
tp402
g1
(g14
g3
NtRp403
(dp404
S'y'
I11
sS'x'
I22
sg17
g18
((ltRp405
sg20
Nsg21
Nsbs(I9
I6
tp406
g1
(g14
g3
NtRp407
(dp408
S'y'
I6
sS'x'
I9
sg17
g18
((ltRp409
sg20
Nsg21
Nsbs(I10
I5
tp410
g1
(g14
g3
NtRp411
(dp412
S'y'
I5
sS'x'
I10
sg17
g18
((ltRp413
sg20
Nsg21
Nsbs(I11
I8
tp414
g1
(g14
g3
NtRp415
(dp416
S'y'
I8
sS'x'
I11
sg17
g18
((ltRp417
sg20
Nsg21
Nsbs(I0
I19
tp418
g1
(g14
g3
NtRp419
(dp420
S'y'
I19
sS'x'
I0
sg17
g18
((ltRp421
sg20
g7
sg21
Nsbs(I14
I7
tp422
g1
(g14
g3
NtRp423
(dp424
S'y'
I7
sS'x'
I14
sg17
g18
((ltRp425
sg20
Nsg21
Nsbs(I12
I19
tp426
g1
(g14
g3
NtRp427
(dp428
S'y'
I19
sS'x'
I12
sg17
g18
((ltRp429
sg20
Nsg21
Nsbs(I1
I18
tp430
g1
(g14
g3
NtRp431
(dp432
S'y'
I18
sS'x'
I1
sg17
g18
((ltRp433
sg20
Nsg21
Nsbs(I15
I6
tp434
g1
(g14
g3
NtRp435
(dp436
S'y'
I6
sS'x'
I15
sg17
g18
((ltRp437
sg20
Nsg21
Nsbs(I13
I18
tp438
g1
(g14
g3
NtRp439
(dp440
S'y'
I18
sS'x'
I13
sg17
g18
((ltRp441
sg20
Nsg21
Nsbs(I0
I9
tp442
g1
(g14
g3
NtRp443
(dp444
S'y'
I9
sS'x'
I0
sg17
g18
((ltRp445
sg20
g7
sg21
Nsbs(I3
I4
tp446
g1
(g14
g3
NtRp447
(dp448
S'y'
I4
sS'x'
I3
sg17
g18
((ltRp449
sg20
Nsg21
Nsbs(I4
I7
tp450
g1
(g14
g3
NtRp451
(dp452
S'y'
I7
sS'x'
I4
sg17
g18
((ltRp453
sg20
Nsg21
Nsbs(I5
I6
tp454
g1
(g14
g3
NtRp455
(dp456
S'y'
I6
sS'x'
I5
sg17
g18
((ltRp457
sg20
Nsg21
Nsbs(I16
I2
tp458
g1
(g14
g3
NtRp459
(dp460
S'y'
I2
sS'x'
I16
sg17
g18
((ltRp461
sg20
Nsg21
Nsbs(I6
I21
tp462
g1
(g14
g3
NtRp463
(dp464
S'y'
I21
sS'x'
I6
sg17
g18
((ltRp465
sg20
Nsg21
Nsbs(I19
I15
tp466
g1
(g14
g3
NtRp467
(dp468
S'y'
I15
sS'x'
I19
sg17
g18
((ltRp469
sg20
Nsg21
Nsbs(I17
I3
tp470
g1
(g14
g3
NtRp471
(dp472
S'y'
I3
sS'x'
I17
sg17
g18
((ltRp473
sg20
Nsg21
Nsbs(I7
I16
tp474
g1
(g14
g3
NtRp475
(dp476
S'y'
I16
sS'x'
I7
sg17
g18
((ltRp477
sg20
Nsg21
Nsbs(I20
I8
tp478
g1
(g14
g3
NtRp479
(dp480
S'y'
I8
sS'x'
I20
sg17
g18
((ltRp481
sg20
Nsg21
Nsbs(I18
I8
tp482
g1
(g14
g3
NtRp483
(dp484
S'y'
I8
sS'x'
I18
sg17
g18
((ltRp485
sg20
Nsg21
Nsbs(I21
I13
tp486
g1
(g14
g3
NtRp487
(dp488
S'y'
I13
sS'x'
I21
sg17
g18
((ltRp489
sg20
Nsg21
Nsbs(I8
I14
tp490
g1
(g14
g3
NtRp491
(dp492
S'y'
I14
sS'x'
I8
sg17
g18
((ltRp493
sg20
Nsg21
Nsbs(I22
I2
tp494
g1
(g14
g3
NtRp495
(dp496
S'y'
I2
sS'x'
I22
sg17
g18
((ltRp497
sg20
Nsg21
Nsbs(I9
I15
tp498
g1
(g14
g3
NtRp499
(dp500
S'y'
I15
sS'x'
I9
sg17
g18
((ltRp501
sg20
Nsg21
Nsbs(I23
I11
tp502
g1
(g14
g3
NtRp503
(dp504
S'y'
I11
sS'x'
I23
sg17
g18
((ltRp505
sg20
g7
sg21
Nsbs(I10
I12
tp506
g1
(g14
g3
NtRp507
(dp508
S'y'
I12
sS'x'
I10
sg17
g18
((ltRp509
sg20
Nsg21
Nsbs(I8
I20
tp510
g1
(g14
g3
NtRp511
(dp512
S'y'
I20
sS'x'
I8
sg17
g18
((ltRp513
sg20
Nsg21
Nsbs(I11
I1
tp514
g1
(g14
g3
NtRp515
(dp516
S'y'
I1
sS'x'
I11
sg17
g18
((ltRp517
sg20
Nsg21
Nsbs(I9
I17
tp518
g1
(g14
g3
NtRp519
(dp520
S'y'
I17
sS'x'
I9
sg17
g18
((ltRp521
sg20
Nsg21
Nsbs(I14
I14
tp522
g1
(g14
g3
NtRp523
(dp524
S'y'
I14
sS'x'
I14
sg17
g18
((ltRp525
sg20
Nsg21
Nsbs(I12
I10
tp526
g1
(g14
g3
NtRp527
(dp528
S'y'
I10
sS'x'
I12
sg17
g18
((ltRp529
sg20
Nsg21
Nsbs(I10
I22
tp530
g1
(g14
g3
NtRp531
(dp532
S'y'
I22
sS'x'
I10
sg17
g18
((ltRp533
sg20
Nsg21
Nsbs(I15
I15
tp534
g1
(g14
g3
NtRp535
(dp536
S'y'
I15
sS'x'
I15
sg17
g18
((ltRp537
sg20
Nsg21
Nsbs(I13
I11
tp538
g1
(g14
g3
NtRp539
(dp540
S'y'
I11
sS'x'
I13
sg17
g18
((ltRp541
sg20
Nsg21
Nsbs(I2
I16
tp542
g1
(g14
g3
NtRp543
(dp544
S'y'
I16
sS'x'
I2
sg17
g18
((ltRp545
sg20
Nsg21
Nsbs(I3
I13
tp546
g1
(g14
g3
NtRp547
(dp548
S'y'
I13
sS'x'
I3
sg17
g18
((ltRp549
sg20
Nsg21
Nsbs(I1
I13
tp550
g1
(g14
g3
NtRp551
(dp552
S'y'
I13
sS'x'
I1
sg17
g18
((ltRp553
sg20
Nsg21
Nsbs(I4
I14
tp554
g1
(g14
g3
NtRp555
(dp556
S'y'
I14
sS'x'
I4
sg17
g18
((ltRp557
sg20
Nsg21
Nsbs(I2
I10
tp558
g1
(g14
g3
NtRp559
(dp560
S'y'
I10
sS'x'
I2
sg17
g18
((ltRp561
sg20
Nsg21
Nsbs(I5
I15
tp562
g1
(g14
g3
NtRp563
(dp564
S'y'
I15
sS'x'
I5
sg17
g18
((ltRp565
sg20
Nsg21
Nsbs(I3
I19
tp566
g1
(g14
g3
NtRp567
(dp568
S'y'
I19
sS'x'
I3
sg17
g18
((ltRp569
sg20
Nsg21
Nsbs(I6
I12
tp570
g1
(g14
g3
NtRp571
(dp572
S'y'
I12
sS'x'
I6
sg17
g18
((ltRp573
sg20
Nsg21
Nsbs(I4
I20
tp574
g1
(g14
g3
NtRp575
(dp576
S'y'
I20
sS'x'
I4
sg17
g18
((ltRp577
sg20
Nsg21
Nsbs(I19
I20
tp578
g1
(g14
g3
NtRp579
(dp580
S'y'
I20
sS'x'
I19
sg17
g18
((ltRp581
sg20
Nsg21
Nsbs(I17
I4
tp582
g1
(g14
g3
NtRp583
(dp584
S'y'
I4
sS'x'
I17
sg17
g18
((ltRp585
sg20
Nsg21
Nsbs(I7
I9
tp586
g1
(g14
g3
NtRp587
(dp588
S'y'
I9
sS'x'
I7
sg17
g18
((ltRp589
sg20
Nsg21
Nsbs(I20
I23
tp590
g1
(g14
g3
NtRp591
(dp592
S'y'
I23
sS'x'
I20
sg17
g18
((ltRp593
sg20
g9
sg21
Nsbs(I18
I3
tp594
g1
(g14
g3
NtRp595
(dp596
S'y'
I3
sS'x'
I18
sg17
g18
((ltRp597
sg20
Nsg21
Nsbs(I21
I22
tp598
g1
(g14
g3
NtRp599
(dp600
S'y'
I22
sS'x'
I21
sg17
g18
((ltRp601
sg20
Nsg21
Nsbs(I22
I5
tp602
g1
(g14
g3
NtRp603
(dp604
S'y'
I5
sS'x'
I22
sg17
g18
((ltRp605
sg20
Nsg21
Nsbs(I11
I6
tp606
g1
(g14
g3
NtRp607
(dp608
S'y'
I6
sS'x'
I11
sg17
g18
((ltRp609
sg20
Nsg21
Nsbs(I14
I17
tp610
g1
(g14
g3
NtRp611
(dp612
S'y'
I17
sS'x'
I14
sg17
g18
((ltRp613
sg20
Nsg21
Nsbs(I12
I1
tp614
g1
(g14
g3
NtRp615
(dp616
S'y'
I1
sS'x'
I12
sg17
g18
((ltRp617
sg20
Nsg21
Nsbs(I10
I17
tp618
g1
(g14
g3
NtRp619
(dp620
S'y'
I17
sS'x'
I10
sg17
g18
((ltRp621
sg20
Nsg21
Nsbs(I15
I20
tp622
g1
(g14
g3
NtRp623
(dp624
S'y'
I20
sS'x'
I15
sg17
g18
((ltRp625
sg20
Nsg21
Nsbs(I13
I4
tp626
g1
(g14
g3
NtRp627
(dp628
S'y'
I4
sS'x'
I13
sg17
g18
((ltRp629
sg20
Nsg21
Nsbs(I0
I7
tp630
g1
(g14
g3
NtRp631
(dp632
S'y'
I7
sS'x'
I0
sg17
g18
((ltRp633
sg20
g7
sg21
Nsbs(I1
I6
tp634
g1
(g14
g3
NtRp635
(dp636
S'y'
I6
sS'x'
I1
sg17
g18
((ltRp637
sg20
Nsg21
Nsbs(I2
I5
tp638
g1
(g14
g3
NtRp639
(dp640
S'y'
I5
sS'x'
I2
sg17
g18
((ltRp641
sg20
Nsg21
Nsbs(I5
I8
tp642
g1
(g14
g3
NtRp643
(dp644
S'y'
I8
sS'x'
I5
sg17
g18
((ltRp645
sg20
Nsg21
Nsbs(I6
I7
tp646
g1
(g14
g3
NtRp647
(dp648
S'y'
I7
sS'x'
I6
sg17
g18
((ltRp649
sg20
Nsg21
Nsbs(I4
I19
tp650
g1
(g14
g3
NtRp651
(dp652
S'y'
I19
sS'x'
I4
sg17
g18
((ltRp653
sg20
Nsg21
Nsbs(I7
I6
tp654
g1
(g14
g3
NtRp655
(dp656
S'y'
I6
sS'x'
I7
sg17
g18
((ltRp657
sg20
Nsg21
Nsbs(I5
I18
tp658
g1
(g14
g3
NtRp659
(dp660
S'y'
I18
sS'x'
I5
sg17
g18
((ltRp661
sg20
Nsg21
Nsbs(I16
I22
tp662
g1
(g14
g3
NtRp663
(dp664
S'y'
I22
sS'x'
I16
sg17
g18
((ltRp665
sg20
Nsg21
Nsbs(I19
I3
tp666
g1
(g14
g3
NtRp667
(dp668
S'y'
I3
sS'x'
I19
sg17
g18
((ltRp669
sg20
Nsg21
Nsbs(I17
I23
tp670
g1
(g14
g3
NtRp671
(dp672
S'y'
I23
sS'x'
I17
sg17
g18
((ltRp673
sg20
g9
sg21
Nsbs(I20
I4
tp674
g1
(g14
g3
NtRp675
(dp676
S'y'
I4
sS'x'
I20
sg17
g18
((ltRp677
sg20
Nsg21
Nsbs(I18
I20
tp678
g1
(g14
g3
NtRp679
(dp680
S'y'
I20
sS'x'
I18
sg17
g18
((ltRp681
sg20
Nsg21
Nsbs(I8
I2
tp682
g1
(g14
g3
NtRp683
(dp684
S'y'
I2
sS'x'
I8
sg17
g18
((ltRp685
sg20
Nsg21
Nsbs(I9
I3
tp686
g1
(g14
g3
NtRp687
(dp688
S'y'
I3
sS'x'
I9
sg17
g18
((ltRp689
sg20
Nsg21
Nsbs(I11
I21
tp690
g1
(g14
g3
NtRp691
(dp692
S'y'
I21
sS'x'
I11
sg17
g18
((ltRp693
sg20
Nsg21
Nsbs(I14
I2
tp694
g1
(g14
g3
NtRp695
(dp696
S'y'
I2
sS'x'
I14
sg17
g18
((ltRp697
sg20
Nsg21
Nsbs(I12
I22
tp698
g1
(g14
g3
NtRp699
(dp700
S'y'
I22
sS'x'
I12
sg17
g18
((ltRp701
sg20
Nsg21
Nsbs(I13
I23
tp702
g1
(g14
g3
NtRp703
(dp704
S'y'
I23
sS'x'
I13
sg17
g18
((ltRp705
sg20
g9
sg21
Nsbs(I3
I1
tp706
g1
(g14
g3
NtRp707
(dp708
S'y'
I1
sS'x'
I3
sg17
g18
((ltRp709
sg20
Nsg21
Nsbs(I16
I13
tp710
g1
(g14
g3
NtRp711
(dp712
S'y'
I13
sS'x'
I16
sg17
g18
((ltRp713
sg20
Nsg21
Nsbs(I6
I16
tp714
g1
(g14
g3
NtRp715
(dp716
S'y'
I16
sS'x'
I6
sg17
g18
((ltRp717
sg20
Nsg21
Nsbs(I19
I8
tp718
g1
(g14
g3
NtRp719
(dp720
S'y'
I8
sS'x'
I19
sg17
g18
((ltRp721
sg20
Nsg21
Nsbs(I17
I8
tp722
g1
(g14
g3
NtRp723
(dp724
S'y'
I8
sS'x'
I17
sg17
g18
((ltRp725
sg20
Nsg21
Nsbs(I7
I21
tp726
g1
(g14
g3
NtRp727
(dp728
S'y'
I21
sS'x'
I7
sg17
g18
((ltRp729
sg20
Nsg21
Nsbs(I22
I23
tp730
g1
(g14
g3
NtRp731
(dp732
S'y'
I23
sS'x'
I22
sg17
g18
((ltRp733
sg20
g9
sg21
Nsbs(I20
I3
tp734
g1
(g14
g3
NtRp735
(dp736
S'y'
I3
sS'x'
I20
sg17
g18
((ltRp737
sg20
Nsg21
Nsbs(I18
I15
tp738
g1
(g14
g3
NtRp739
(dp740
S'y'
I15
sS'x'
I18
sg17
g18
((ltRp741
sg20
Nsg21
Nsbs(I23
I22
tp742
g1
(g14
g3
NtRp743
(dp744
S'y'
I22
sS'x'
I23
sg17
g18
((ltRp745
sg20
g7
sg21
Nsbs(I21
I2
tp746
g1
(g14
g3
NtRp747
(dp748
S'y'
I2
sS'x'
I21
sg17
g18
((ltRp749
sg20
Nsg21
Nsbs(I8
I9
tp750
g1
(g14
g3
NtRp751
(dp752
S'y'
I9
sS'x'
I8
sg17
g18
((ltRp753
sg20
Nsg21
Nsbs(I22
I9
tp754
g1
(g14
g3
NtRp755
(dp756
S'y'
I9
sS'x'
I22
sg17
g18
((ltRp757
sg20
Nsg21
Nsbs(I9
I4
tp758
g1
(g14
g3
NtRp759
(dp760
S'y'
I4
sS'x'
I9
sg17
g18
((ltRp761
sg20
Nsg21
Nsbs(I23
I12
tp762
g1
(g14
g3
NtRp763
(dp764
S'y'
I12
sS'x'
I23
sg17
g18
((ltRp765
sg20
g7
sg21
Nsbs(I10
I3
tp766
g1
(g14
g3
NtRp767
(dp768
S'y'
I3
sS'x'
I10
sg17
g18
((ltRp769
sg20
Nsg21
Nsbs(I11
I10
tp770
g1
(g14
g3
NtRp771
(dp772
S'y'
I10
sS'x'
I11
sg17
g18
((ltRp773
sg20
Nsg21
Nsbs(I0
I21
tp774
g1
(g14
g3
NtRp775
(dp776
S'y'
I21
sS'x'
I0
sg17
g18
((ltRp777
sg20
g7
sg21
Nsbs(I14
I5
tp778
g1
(g14
g3
NtRp779
(dp780
S'y'
I5
sS'x'
I14
sg17
g18
((ltRp781
sg20
Nsg21
Nsbs(I12
I13
tp782
g1
(g14
g3
NtRp783
(dp784
S'y'
I13
sS'x'
I12
sg17
g18
((ltRp785
sg20
Nsg21
Nsbs(I1
I16
tp786
g1
(g14
g3
NtRp787
(dp788
S'y'
I16
sS'x'
I1
sg17
g18
((ltRp789
sg20
Nsg21
Nsbs(I15
I0
tp790
g1
(g14
g3
NtRp791
(dp792
S'y'
I0
sS'x'
I15
sg17
g18
((ltRp793
sg20
g9
sg21
Nsbs(I13
I16
tp794
g1
(g14
g3
NtRp795
(dp796
S'y'
I16
sS'x'
I13
sg17
g18
((ltRp797
sg20
Nsg21
Nsbs(I2
I23
tp798
g1
(g14
g3
NtRp799
(dp800
S'y'
I23
sS'x'
I2
sg17
g18
((ltRp801
sg20
g9
sg21
Nsbs(I0
I11
tp802
g1
(g14
g3
NtRp803
(dp804
S'y'
I11
sS'x'
I0
sg17
g18
((ltRp805
sg20
g7
sg21
Nsbs(I3
I6
tp806
g1
(g14
g3
NtRp807
(dp808
S'y'
I6
sS'x'
I3
sg17
g18
((ltRp809
sg20
Nsg21
Nsbs(I1
I10
tp810
g1
(g14
g3
NtRp811
(dp812
S'y'
I10
sS'x'
I1
sg17
g18
((ltRp813
sg20
Nsg21
Nsbs(I4
I1
tp814
g1
(g14
g3
NtRp815
(dp816
S'y'
I1
sS'x'
I4
sg17
g18
((ltRp817
sg20
Nsg21
Nsbs(I5
I4
tp818
g1
(g14
g3
NtRp819
(dp820
S'y'
I4
sS'x'
I5
sg17
g18
((ltRp821
sg20
Nsg21
Nsbs(I16
I4
tp822
g1
(g14
g3
NtRp823
(dp824
S'y'
I4
sS'x'
I16
sg17
g18
((ltRp825
sg20
Nsg21
Nsbs(I6
I11
tp826
g1
(g14
g3
NtRp827
(dp828
S'y'
I11
sS'x'
I6
sg17
g18
((ltRp829
sg20
Nsg21
Nsbs(I19
I17
tp830
g1
(g14
g3
NtRp831
(dp832
S'y'
I17
sS'x'
I19
sg17
g18
((ltRp833
sg20
Nsg21
Nsbs(I17
I1
tp834
g1
(g14
g3
NtRp835
(dp836
S'y'
I1
sS'x'
I17
sg17
g18
((ltRp837
sg20
Nsg21
Nsbs(I7
I18
tp838
g1
(g14
g3
NtRp839
(dp840
S'y'
I18
sS'x'
I7
sg17
g18
((ltRp841
sg20
Nsg21
Nsbs(I20
I10
tp842
g1
(g14
g3
NtRp843
(dp844
S'y'
I10
sS'x'
I20
sg17
g18
((ltRp845
sg20
Nsg21
Nsbs(I18
I6
tp846
g1
(g14
g3
NtRp847
(dp848
S'y'
I6
sS'x'
I18
sg17
g18
((ltRp849
sg20
Nsg21
Nsbs(I21
I11
tp850
g1
(g14
g3
NtRp851
(dp852
S'y'
I11
sS'x'
I21
sg17
g18
((ltRp853
sg20
Nsg21
Nsbs(I22
I0
tp854
g1
(g14
g3
NtRp855
(dp856
S'y'
I0
sS'x'
I22
sg17
g18
((ltRp857
sg20
g9
sg21
Nsbs(I9
I13
tp858
g1
(g14
g3
NtRp859
(dp860
S'y'
I13
sS'x'
I9
sg17
g18
((ltRp861
sg20
Nsg21
Nsbs(I23
I5
tp862
g1
(g14
g3
NtRp863
(dp864
S'y'
I5
sS'x'
I23
sg17
g18
((ltRp865
sg20
g7
sg21
Nsbs(I10
I10
tp866
g1
(g14
g3
NtRp867
(dp868
S'y'
I10
sS'x'
I10
sg17
g18
((ltRp869
sg20
Nsg21
Nsbs(I8
I22
tp870
g1
(g14
g3
NtRp871
(dp872
S'y'
I22
sS'x'
I8
sg17
g18
((ltRp873
sg20
Nsg21
Nsbs(I11
I3
tp874
g1
(g14
g3
NtRp875
(dp876
S'y'
I3
sS'x'
I11
sg17
g18
((ltRp877
sg20
Nsg21
Nsbs(I9
I23
tp878
g1
(g14
g3
NtRp879
(dp880
S'y'
I23
sS'x'
I9
sg17
g18
((ltRp881
sg20
g9
sg21
Nsbs(I14
I12
tp882
g1
(g14
g3
NtRp883
(dp884
S'y'
I12
sS'x'
I14
sg17
g18
((ltRp885
sg20
Nsg21
Nsbs(I12
I4
tp886
g1
(g14
g3
NtRp887
(dp888
S'y'
I4
sS'x'
I12
sg17
g18
((ltRp889
sg20
Nsg21
Nsbs(I10
I20
tp890
g1
(g14
g3
NtRp891
(dp892
S'y'
I20
sS'x'
I10
sg17
g18
((ltRp893
sg20
Nsg21
Nsbs(I15
I9
tp894
g1
(g14
g3
NtRp895
(dp896
S'y'
I9
sS'x'
I15
sg17
g18
((ltRp897
sg20
Nsg21
Nsbs(I13
I9
tp898
g1
(g14
g3
NtRp899
(dp900
S'y'
I9
sS'x'
I13
sg17
g18
((ltRp901
sg20
Nsg21
Nsbs(I0
I2
tp902
g1
(g14
g3
NtRp903
(dp904
S'y'
I2
sS'x'
I0
sg17
g18
((ltRp905
sg20
g7
sg21
Nsbs(I3
I15
tp906
g1
(g14
g3
NtRp907
(dp908
S'y'
I15
sS'x'
I3
sg17
g18
((ltRp909
sg20
Nsg21
Nsbs(I1
I3
tp910
g1
(g14
g3
NtRp911
(dp912
S'y'
I3
sS'x'
I1
sg17
g18
((ltRp913
sg20
Nsg21
Nsbs(I4
I8
tp914
g1
(g14
g3
NtRp915
(dp916
S'y'
I8
sS'x'
I4
sg17
g18
((ltRp917
sg20
Nsg21
Nsbs(I2
I8
tp918
g1
(g14
g3
NtRp919
(dp920
S'y'
I8
sS'x'
I2
sg17
g18
((ltRp921
sg20
Nsg21
Nsbs(I5
I13
tp922
g1
(g14
g3
NtRp923
(dp924
S'y'
I13
sS'x'
I5
sg17
g18
((ltRp925
sg20
Nsg21
Nsbs(I3
I21
tp926
g1
(g14
g3
NtRp927
(dp928
S'y'
I21
sS'x'
I3
sg17
g18
((ltRp929
sg20
Nsg21
Nsbs(I6
I2
tp930
g1
(g14
g3
NtRp931
(dp932
S'y'
I2
sS'x'
I6
sg17
g18
((ltRp933
sg20
Nsg21
Nsbs(I4
I22
tp934
g1
(g14
g3
NtRp935
(dp936
S'y'
I22
sS'x'
I4
sg17
g18
((ltRp937
sg20
Nsg21
Nsbs(I19
I22
tp938
g1
(g14
g3
NtRp939
(dp940
S'y'
I22
sS'x'
I19
sg17
g18
((ltRp941
sg20
Nsg21
Nsbs(I7
I11
tp942
g1
(g14
g3
NtRp943
(dp944
S'y'
I11
sS'x'
I7
sg17
g18
((ltRp945
sg20
Nsg21
Nsbs(I5
I23
tp946
g1
(g14
g3
NtRp947
(dp948
S'y'
I23
sS'x'
I5
sg17
g18
((ltRp949
sg20
g9
sg21
Nsbs(I20
I17
tp950
g1
(g14
g3
NtRp951
(dp952
S'y'
I17
sS'x'
I20
sg17
g18
((ltRp953
sg20
Nsg21
Nsbs(I18
I1
tp954
g1
(g14
g3
NtRp955
(dp956
S'y'
I1
sS'x'
I18
sg17
g18
((ltRp957
sg20
Nsg21
Nsbs(I16
I17
tp958
g1
(g14
g3
NtRp959
(dp960
S'y'
I17
sS'x'
I16
sg17
g18
((ltRp961
sg20
Nsg21
Nsbs(I21
I20
tp962
g1
(g14
g3
NtRp963
(dp964
S'y'
I20
sS'x'
I21
sg17
g18
((ltRp965
sg20
Nsg21
Nsbs(I23
I2
tp966
g1
(g14
g3
NtRp967
(dp968
S'y'
I2
sS'x'
I23
sg17
g18
((ltRp969
sg20
g7
sg21
Nsbs(I14
I23
tp970
g1
(g14
g3
NtRp971
(dp972
S'y'
I23
sS'x'
I14
sg17
g18
((ltRp973
sg20
g9
sg21
Nsbs(I12
I3
tp974
g1
(g14
g3
NtRp975
(dp976
S'y'
I3
sS'x'
I12
sg17
g18
((ltRp977
sg20
Nsg21
Nsbs(I15
I22
tp978
g1
(g14
g3
NtRp979
(dp980
S'y'
I22
sS'x'
I15
sg17
g18
((ltRp981
sg20
Nsg21
Nsbs(I13
I2
tp982
g1
(g14
g3
NtRp983
(dp984
S'y'
I2
sS'x'
I13
sg17
g18
((ltRp985
sg20
Nsg21
Nsbs(I1
I4
tp986
g1
(g14
g3
NtRp987
(dp988
S'y'
I4
sS'x'
I1
sg17
g18
((ltRp989
sg20
Nsg21
Nsbs(I2
I3
tp990
g1
(g14
g3
NtRp991
(dp992
S'y'
I3
sS'x'
I2
sg17
g18
((ltRp993
sg20
Nsg21
Nsbs(I6
I5
tp994
g1
(g14
g3
NtRp995
(dp996
S'y'
I5
sS'x'
I6
sg17
g18
((ltRp997
sg20
Nsg21
Nsbs(I7
I0
tp998
g1
(g14
g3
NtRp999
(dp1000
S'y'
I0
sS'x'
I7
sg17
g18
((ltRp1001
sg20
g9
sg21
Nsbs(I5
I16
tp1002
g1
(g14
g3
NtRp1003
(dp1004
S'y'
I16
sS'x'
I5
sg17
g18
((ltRp1005
sg20
Nsg21
Nsbs(I16
I8
tp1006
g1
(g14
g3
NtRp1007
(dp1008
S'y'
I8
sS'x'
I16
sg17
g18
((ltRp1009
sg20
Nsg21
Nsbs(I19
I5
tp1010
g1
(g14
g3
NtRp1011
(dp1012
S'y'
I5
sS'x'
I19
sg17
g18
((ltRp1013
sg20
Nsg21
Nsbs(I17
I21
tp1014
g1
(g14
g3
NtRp1015
(dp1016
S'y'
I21
sS'x'
I17
sg17
g18
((ltRp1017
sg20
Nsg21
Nsbs(I22
I18
tp1018
g1
(g14
g3
NtRp1019
(dp1020
S'y'
I18
sS'x'
I22
sg17
g18
((ltRp1021
sg20
Nsg21
Nsbs(I20
I6
tp1022
g1
(g14
g3
NtRp1023
(dp1024
S'y'
I6
sS'x'
I20
sg17
g18
((ltRp1025
sg20
Nsg21
Nsbs(I18
I18
tp1026
g1
(g14
g3
NtRp1027
(dp1028
S'y'
I18
sS'x'
I18
sg17
g18
((ltRp1029
sg20
Nsg21
Nsbs(I21
I7
tp1030
g1
(g14
g3
NtRp1031
(dp1032
S'y'
I7
sS'x'
I21
sg17
g18
((ltRp1033
sg20
Nsg21
Nsbs(I8
I4
tp1034
g1
(g14
g3
NtRp1035
(dp1036
S'y'
I4
sS'x'
I8
sg17
g18
((ltRp1037
sg20
Nsg21
Nsbs(I9
I1
tp1038
g1
(g14
g3
NtRp1039
(dp1040
S'y'
I1
sS'x'
I9
sg17
g18
((ltRp1041
sg20
Nsg21
Nsbs(I10
I6
tp1042
g1
(g14
g3
NtRp1043
(dp1044
S'y'
I6
sS'x'
I10
sg17
g18
((ltRp1045
sg20
Nsg21
Nsbs(I11
I23
tp1046
g1
(g14
g3
NtRp1047
(dp1048
S'y'
I23
sS'x'
I11
sg17
g18
((ltRp1049
sg20
g9
sg21
Nsbs(I0
I16
tp1050
g1
(g14
g3
NtRp1051
(dp1052
S'y'
I16
sS'x'
I0
sg17
g18
((ltRp1053
sg20
g7
sg21
Nsbs(I14
I0
tp1054
g1
(g14
g3
NtRp1055
(dp1056
S'y'
I0
sS'x'
I14
sg17
g18
((ltRp1057
sg20
g9
sg21
Nsbs(I12
I16
tp1058
g1
(g14
g3
NtRp1059
(dp1060
S'y'
I16
sS'x'
I12
sg17
g18
((ltRp1061
sg20
Nsg21
Nsbs(I15
I5
tp1062
g1
(g14
g3
NtRp1063
(dp1064
S'y'
I5
sS'x'
I15
sg17
g18
((ltRp1065
sg20
Nsg21
Nsbs(I13
I21
tp1066
g1
(g14
g3
NtRp1067
(dp1068
S'y'
I21
sS'x'
I13
sg17
g18
((ltRp1069
sg20
Nsg21
Nsbs(I3
I3
tp1070
g1
(g14
g3
NtRp1071
(dp1072
S'y'
I3
sS'x'
I3
sg17
g18
((ltRp1073
sg20
Nsg21
Nsbs(I4
I4
tp1074
g1
(g14
g3
NtRp1075
(dp1076
S'y'
I4
sS'x'
I4
sg17
g18
((ltRp1077
sg20
Nsg21
Nsbs(I16
I15
tp1078
g1
(g14
g3
NtRp1079
(dp1080
S'y'
I15
sS'x'
I16
sg17
g18
((ltRp1081
sg20
Nsg21
Nsbs(I6
I22
tp1082
g1
(g14
g3
NtRp1083
(dp1084
S'y'
I22
sS'x'
I6
sg17
g18
((ltRp1085
sg20
Nsg21
Nsbs(I19
I10
tp1086
g1
(g14
g3
NtRp1087
(dp1088
S'y'
I10
sS'x'
I19
sg17
g18
((ltRp1089
sg20
Nsg21
Nsbs(I17
I14
tp1090
g1
(g14
g3
NtRp1091
(dp1092
S'y'
I14
sS'x'
I17
sg17
g18
((ltRp1093
sg20
Nsg21
Nsbs(I7
I23
tp1094
g1
(g14
g3
NtRp1095
(dp1096
S'y'
I23
sS'x'
I7
sg17
g18
((ltRp1097
sg20
g9
sg21
Nsbs(I22
I21
tp1098
g1
(g14
g3
NtRp1099
(dp1100
S'y'
I21
sS'x'
I22
sg17
g18
((ltRp1101
sg20
Nsg21
Nsbs(I20
I13
tp1102
g1
(g14
g3
NtRp1103
(dp1104
S'y'
I13
sS'x'
I20
sg17
g18
((ltRp1105
sg20
Nsg21
Nsbs(I18
I13
tp1106
g1
(g14
g3
NtRp1107
(dp1108
S'y'
I13
sS'x'
I18
sg17
g18
((ltRp1109
sg20
Nsg21
Nsbs(I23
I16
tp1110
g1
(g14
g3
NtRp1111
(dp1112
S'y'
I16
sS'x'
I23
sg17
g18
((ltRp1113
sg20
g7
sg21
Nsbs(I21
I0
tp1114
g1
(g14
g3
NtRp1115
(dp1116
S'y'
I0
sS'x'
I21
sg17
g18
((ltRp1117
sg20
g9
sg21
Nsbs(I8
I11
tp1118
g1
(g14
g3
NtRp1119
(dp1120
S'y'
I11
sS'x'
I8
sg17
g18
((ltRp1121
sg20
Nsg21
Nsbs(I22
I15
tp1122
g1
(g14
g3
NtRp1123
(dp1124
S'y'
I15
sS'x'
I22
sg17
g18
((ltRp1125
sg20
Nsg21
Nsbs(I9
I10
tp1126
g1
(g14
g3
NtRp1127
(dp1128
S'y'
I10
sS'x'
I9
sg17
g18
((ltRp1129
sg20
Nsg21
Nsbs(I23
I14
tp1130
g1
(g14
g3
NtRp1131
(dp1132
S'y'
I14
sS'x'
I23
sg17
g18
((ltRp1133
sg20
g7
sg21
Nsbs(I10
I1
tp1134
g1
(g14
g3
NtRp1135
(dp1136
S'y'
I1
sS'x'
I10
sg17
g18
((ltRp1137
sg20
Nsg21
Nsbs(I8
I17
tp1138
g1
(g14
g3
NtRp1139
(dp1140
S'y'
I17
sS'x'
I8
sg17
g18
((ltRp1141
sg20
Nsg21
Nsbs(I11
I12
tp1142
g1
(g14
g3
NtRp1143
(dp1144
S'y'
I12
sS'x'
I11
sg17
g18
((ltRp1145
sg20
Nsg21
Nsbs(I14
I11
tp1146
g1
(g14
g3
NtRp1147
(dp1148
S'y'
I11
sS'x'
I14
sg17
g18
((ltRp1149
sg20
Nsg21
Nsbs(I12
I15
tp1150
g1
(g14
g3
NtRp1151
(dp1152
S'y'
I15
sS'x'
I12
sg17
g18
((ltRp1153
sg20
Nsg21
Nsbs(I1
I22
tp1154
g1
(g14
g3
NtRp1155
(dp1156
S'y'
I22
sS'x'
I1
sg17
g18
((ltRp1157
sg20
Nsg21
Nsbs(I15
I2
tp1158
g1
(g14
g3
NtRp1159
(dp1160
S'y'
I2
sS'x'
I15
sg17
g18
((ltRp1161
sg20
Nsg21
Nsbs(I13
I14
tp1162
g1
(g14
g3
NtRp1163
(dp1164
S'y'
I14
sS'x'
I13
sg17
g18
((ltRp1165
sg20
Nsg21
Nsbs(I2
I21
tp1166
g1
(g14
g3
NtRp1167
(dp1168
S'y'
I21
sS'x'
I2
sg17
g18
((ltRp1169
sg20
Nsg21
Nsbs(I0
I13
tp1170
g1
(g14
g3
NtRp1171
(dp1172
S'y'
I13
sS'x'
I0
sg17
g18
((ltRp1173
sg20
g7
sg21
Nsbs(I3
I8
tp1174
g1
(g14
g3
NtRp1175
(dp1176
S'y'
I8
sS'x'
I3
sg17
g18
((ltRp1177
sg20
Nsg21
Nsbs(I1
I8
tp1178
g1
(g14
g3
NtRp1179
(dp1180
S'y'
I8
sS'x'
I1
sg17
g18
((ltRp1181
sg20
Nsg21
Nsbs(I4
I3
tp1182
g1
(g14
g3
NtRp1183
(dp1184
S'y'
I3
sS'x'
I4
sg17
g18
((ltRp1185
sg20
Nsg21
Nsbs(I2
I15
tp1186
g1
(g14
g3
NtRp1187
(dp1188
S'y'
I15
sS'x'
I2
sg17
g18
((ltRp1189
sg20
Nsg21
Nsbs(I5
I2
tp1190
g1
(g14
g3
NtRp1191
(dp1192
S'y'
I2
sS'x'
I5
sg17
g18
((ltRp1193
sg20
Nsg21
Nsbs(I16
I6
tp1194
g1
(g14
g3
NtRp1195
(dp1196
S'y'
I6
sS'x'
I16
sg17
g18
((ltRp1197
sg20
Nsg21
Nsbs(I6
I9
tp1198
g1
(g14
g3
NtRp1199
(dp1200
S'y'
I9
sS'x'
I6
sg17
g18
((ltRp1201
sg20
Nsg21
Nsbs(I19
I19
tp1202
g1
(g14
g3
NtRp1203
(dp1204
S'y'
I19
sS'x'
I19
sg17
g18
((ltRp1205
sg20
Nsg21
Nsbs(I17
I7
tp1206
g1
(g14
g3
NtRp1207
(dp1208
S'y'
I7
sS'x'
I17
sg17
g18
((ltRp1209
sg20
Nsg21
Nsbs(I7
I12
tp1210
g1
(g14
g3
NtRp1211
(dp1212
S'y'
I12
sS'x'
I7
sg17
g18
((ltRp1213
sg20
Nsg21
Nsbs(I20
I20
tp1214
g1
(g14
g3
NtRp1215
(dp1216
S'y'
I20
sS'x'
I20
sg17
g18
((ltRp1217
sg20
Nsg21
Nsbs(I18
I4
tp1218
g1
(g14
g3
NtRp1219
(dp1220
S'y'
I4
sS'x'
I18
sg17
g18
((ltRp1221
sg20
Nsg21
Nsbs(I21
I9
tp1222
g1
(g14
g3
NtRp1223
(dp1224
S'y'
I9
sS'x'
I21
sg17
g18
((ltRp1225
sg20
Nsg21
Nsbs(I22
I6
tp1226
g1
(g14
g3
NtRp1227
(dp1228
S'y'
I6
sS'x'
I22
sg17
g18
((ltRp1229
sg20
Nsg21
Nsbs(I23
I7
tp1230
g1
(g14
g3
NtRp1231
(dp1232
S'y'
I7
sS'x'
I23
sg17
g18
((ltRp1233
sg20
g7
sg21
Nsbs(I10
I8
tp1234
g1
(g14
g3
NtRp1235
(dp1236
S'y'
I8
sS'x'
I10
sg17
g18
((ltRp1237
sg20
Nsg21
Nsbs(I11
I5
tp1238
g1
(g14
g3
NtRp1239
(dp1240
S'y'
I5
sS'x'
I11
sg17
g18
((ltRp1241
sg20
Nsg21
Nsbs(I9
I21
tp1242
g1
(g14
g3
NtRp1243
(dp1244
S'y'
I21
sS'x'
I9
sg17
g18
((ltRp1245
sg20
Nsg21
Nsbs(I14
I18
tp1246
g1
(g14
g3
NtRp1247
(dp1248
S'y'
I18
sS'x'
I14
sg17
g18
((ltRp1249
sg20
Nsg21
Nsbs(I12
I6
tp1250
g1
(g14
g3
NtRp1251
(dp1252
S'y'
I6
sS'x'
I12
sg17
g18
((ltRp1253
sg20
Nsg21
Nsbs(I10
I18
tp1254
g1
(g14
g3
NtRp1255
(dp1256
S'y'
I18
sS'x'
I10
sg17
g18
((ltRp1257
sg20
Nsg21
Nsbs(I15
I11
tp1258
g1
(g14
g3
NtRp1259
(dp1260
S'y'
I11
sS'x'
I15
sg17
g18
((ltRp1261
sg20
Nsg21
Nsbs(I13
I7
tp1262
g1
(g14
g3
NtRp1263
(dp1264
S'y'
I7
sS'x'
I13
sg17
g18
((ltRp1265
sg20
Nsg21
Nsbs(I0
I4
tp1266
g1
(g14
g3
NtRp1267
(dp1268
S'y'
I4
sS'x'
I0
sg17
g18
((ltRp1269
sg20
g7
sg21
Nsbs(I1
I1
tp1270
g1
(g14
g3
NtRp1271
(dp1272
S'y'
I1
sS'x'
I1
sg17
g18
((ltRp1273
sg20
Nsg21
Nsbs(I4
I10
tp1274
g1
(g14
g3
NtRp1275
(dp1276
S'y'
I10
sS'x'
I4
sg17
g18
((ltRp1277
sg20
Nsg21
Nsbs(I2
I6
tp1278
g1
(g14
g3
NtRp1279
(dp1280
S'y'
I6
sS'x'
I2
sg17
g18
((ltRp1281
sg20
Nsg21
Nsbs(I5
I11
tp1282
g1
(g14
g3
NtRp1283
(dp1284
S'y'
I11
sS'x'
I5
sg17
g18
((ltRp1285
sg20
Nsg21
Nsbs(I3
I23
tp1286
g1
(g14
g3
NtRp1287
(dp1288
S'y'
I23
sS'x'
I3
sg17
g18
((ltRp1289
sg20
g9
sg21
Nsbs(I6
I0
tp1290
g1
(g14
g3
NtRp1291
(dp1292
S'y'
I0
sS'x'
I6
sg17
g18
((ltRp1293
sg20
g9
sg21
Nsbs(I4
I16
tp1294
g1
(g14
g3
NtRp1295
(dp1296
S'y'
I16
sS'x'
I4
sg17
g18
((ltRp1297
sg20
Nsg21
Nsbs(I7
I5
tp1298
g1
(g14
g3
NtRp1299
(dp1300
S'y'
I5
sS'x'
I7
sg17
g18
((ltRp1301
sg20
Nsg21
Nsbs(I5
I21
tp1302
g1
(g14
g3
NtRp1303
(dp1304
S'y'
I21
sS'x'
I5
sg17
g18
((ltRp1305
sg20
Nsg21
Nsbs(I20
I19
tp1306
g1
(g14
g3
NtRp1307
(dp1308
S'y'
I19
sS'x'
I20
sg17
g18
((ltRp1309
sg20
Nsg21
Nsbs(I16
I19
tp1310
g1
(g14
g3
NtRp1311
(dp1312
S'y'
I19
sS'x'
I16
sg17
g18
((ltRp1313
sg20
Nsg21
Nsbs(I21
I18
tp1314
g1
(g14
g3
NtRp1315
(dp1316
S'y'
I18
sS'x'
I21
sg17
g18
((ltRp1317
sg20
Nsg21
Nsbs(I17
I18
tp1318
g1
(g14
g3
NtRp1319
(dp1320
S'y'
I18
sS'x'
I17
sg17
g18
((ltRp1321
sg20
Nsg21
Nsbs(I14
I21
tp1322
g1
(g14
g3
NtRp1323
(dp1324
S'y'
I21
sS'x'
I14
sg17
g18
((ltRp1325
sg20
Nsg21
Nsbs(I15
I16
tp1326
g1
(g14
g3
NtRp1327
(dp1328
S'y'
I16
sS'x'
I15
sg17
g18
((ltRp1329
sg20
Nsg21
Nsbs(I13
I0
tp1330
g1
(g14
g3
NtRp1331
(dp1332
S'y'
I0
sS'x'
I13
sg17
g18
((ltRp1333
sg20
g9
sg21
Nsbs(I11
I16
tp1334
g1
(g14
g3
NtRp1335
(dp1336
S'y'
I16
sS'x'
I11
sg17
g18
((ltRp1337
sg20
Nsg21
Nsbs(I2
I1
tp1338
g1
(g14
g3
NtRp1339
(dp1340
S'y'
I1
sS'x'
I2
sg17
g18
((ltRp1341
sg20
Nsg21
Nsbs(I7
I2
tp1342
g1
(g14
g3
NtRp1343
(dp1344
S'y'
I2
sS'x'
I7
sg17
g18
((ltRp1345
sg20
Nsg21
Nsbs(I16
I10
tp1346
g1
(g14
g3
NtRp1347
(dp1348
S'y'
I10
sS'x'
I16
sg17
g18
((ltRp1349
sg20
Nsg21
Nsbs(I19
I7
tp1350
g1
(g14
g3
NtRp1351
(dp1352
S'y'
I7
sS'x'
I19
sg17
g18
((ltRp1353
sg20
Nsg21
Nsbs(I17
I11
tp1354
g1
(g14
g3
NtRp1355
(dp1356
S'y'
I11
sS'x'
I17
sg17
g18
((ltRp1357
sg20
Nsg21
Nsbs(I22
I16
tp1358
g1
(g14
g3
NtRp1359
(dp1360
S'y'
I16
sS'x'
I22
sg17
g18
((ltRp1361
sg20
Nsg21
Nsbs(I20
I0
tp1362
g1
(g14
g3
NtRp1363
(dp1364
S'y'
I0
sS'x'
I20
sg17
g18
((ltRp1365
sg20
g9
sg21
Nsbs(I18
I16
tp1366
g1
(g14
g3
NtRp1367
(dp1368
S'y'
I16
sS'x'
I18
sg17
g18
((ltRp1369
sg20
Nsg21
Nsbs(I23
I21
tp1370
g1
(g14
g3
NtRp1371
(dp1372
S'y'
I21
sS'x'
I23
sg17
g18
((ltRp1373
sg20
g7
sg21
Nsbs(I21
I5
tp1374
g1
(g14
g3
NtRp1375
(dp1376
S'y'
I5
sS'x'
I21
sg17
g18
((ltRp1377
sg20
Nsg21
Nsbs(I8
I6
tp1378
g1
(g14
g3
NtRp1379
(dp1380
S'y'
I6
sS'x'
I8
sg17
g18
((ltRp1381
sg20
Nsg21
Nsbs(I22
I10
tp1382
g1
(g14
g3
NtRp1383
(dp1384
S'y'
I10
sS'x'
I22
sg17
g18
((ltRp1385
sg20
Nsg21
Nsbs(I9
I7
tp1386
g1
(g14
g3
NtRp1387
(dp1388
S'y'
I7
sS'x'
I9
sg17
g18
((ltRp1389
sg20
Nsg21
Nsbs(I10
I4
tp1390
g1
(g14
g3
NtRp1391
(dp1392
S'y'
I4
sS'x'
I10
sg17
g18
((ltRp1393
sg20
Nsg21
Nsbs(I11
I9
tp1394
g1
(g14
g3
NtRp1395
(dp1396
S'y'
I9
sS'x'
I11
sg17
g18
((ltRp1397
sg20
Nsg21
Nsbs(I0
I18
tp1398
g1
(g14
g3
NtRp1399
(dp1400
S'y'
I18
sS'x'
I0
sg17
g18
((ltRp1401
sg20
g7
sg21
Nsbs(I14
I6
tp1402
g1
(g14
g3
NtRp1403
(dp1404
S'y'
I6
sS'x'
I14
sg17
g18
((ltRp1405
sg20
Nsg21
Nsbs(I12
I18
tp1406
g1
(g14
g3
NtRp1407
(dp1408
S'y'
I18
sS'x'
I12
sg17
g18
((ltRp1409
sg20
Nsg21
Nsbs(I1
I19
tp1410
g1
(g14
g3
NtRp1411
(dp1412
S'y'
I19
sS'x'
I1
sg17
g18
((ltRp1413
sg20
Nsg21
Nsbs(I15
I7
tp1414
g1
(g14
g3
NtRp1415
(dp1416
S'y'
I7
sS'x'
I15
sg17
g18
((ltRp1417
sg20
Nsg21
Nsbs(I13
I19
tp1418
g1
(g14
g3
NtRp1419
(dp1420
S'y'
I19
sS'x'
I13
sg17
g18
((ltRp1421
sg20
Nsg21
Nsbs(I0
I8
tp1422
g1
(g14
g3
NtRp1423
(dp1424
S'y'
I8
sS'x'
I0
sg17
g18
((ltRp1425
sg20
g7
sg21
Nsbs(I3
I5
tp1426
g1
(g14
g3
NtRp1427
(dp1428
S'y'
I5
sS'x'
I3
sg17
g18
((ltRp1429
sg20
Nsg21
Nsbs(I4
I6
tp1430
g1
(g14
g3
NtRp1431
(dp1432
S'y'
I6
sS'x'
I4
sg17
g18
((ltRp1433
sg20
Nsg21
Nsbs(I5
I7
tp1434
g1
(g14
g3
NtRp1435
(dp1436
S'y'
I7
sS'x'
I5
sg17
g18
((ltRp1437
sg20
Nsg21
Nsbs(I16
I1
tp1438
g1
(g14
g3
NtRp1439
(dp1440
S'y'
I1
sS'x'
I16
sg17
g18
((ltRp1441
sg20
Nsg21
Nsbs(I6
I20
tp1442
g1
(g14
g3
NtRp1443
(dp1444
S'y'
I20
sS'x'
I6
sg17
g18
((ltRp1445
sg20
Nsg21
Nsbs(I19
I12
tp1446
g1
(g14
g3
NtRp1447
(dp1448
S'y'
I12
sS'x'
I19
sg17
g18
((ltRp1449
sg20
Nsg21
Nsbs(I17
I12
tp1450
g1
(g14
g3
NtRp1451
(dp1452
S'y'
I12
sS'x'
I17
sg17
g18
((ltRp1453
sg20
Nsg21
Nsbs(I7
I17
tp1454
g1
(g14
g3
NtRp1455
(dp1456
S'y'
I17
sS'x'
I7
sg17
g18
((ltRp1457
sg20
Nsg21
Nsbs(I20
I15
tp1458
g1
(g14
g3
NtRp1459
(dp1460
S'y'
I15
sS'x'
I20
sg17
g18
((ltRp1461
sg20
Nsg21
Nsbs(I18
I11
tp1462
g1
(g14
g3
NtRp1463
(dp1464
S'y'
I11
sS'x'
I18
sg17
g18
((ltRp1465
sg20
Nsg21
Nsbs(I23
I18
tp1466
g1
(g14
g3
NtRp1467
(dp1468
S'y'
I18
sS'x'
I23
sg17
g18
((ltRp1469
sg20
g7
sg21
Nsbs(I21
I14
tp1470
g1
(g14
g3
NtRp1471
(dp1472
S'y'
I14
sS'x'
I21
sg17
g18
((ltRp1473
sg20
Nsg21
Nsbs(I8
I13
tp1474
g1
(g14
g3
NtRp1475
(dp1476
S'y'
I13
sS'x'
I8
sg17
g18
((ltRp1477
sg20
Nsg21
Nsbs(I22
I13
tp1478
g1
(g14
g3
NtRp1479
(dp1480
S'y'
I13
sS'x'
I22
sg17
g18
((ltRp1481
sg20
Nsg21
Nsbs(I9
I8
tp1482
g1
(g14
g3
NtRp1483
(dp1484
S'y'
I8
sS'x'
I9
sg17
g18
((ltRp1485
sg20
Nsg21
Nsbs(I23
I8
tp1486
g1
(g14
g3
NtRp1487
(dp1488
S'y'
I8
sS'x'
I23
sg17
g18
((ltRp1489
sg20
g7
sg21
Nsbs(I10
I15
tp1490
g1
(g14
g3
NtRp1491
(dp1492
S'y'
I15
sS'x'
I10
sg17
g18
((ltRp1493
sg20
Nsg21
Nsbs(I8
I19
tp1494
g1
(g14
g3
NtRp1495
(dp1496
S'y'
I19
sS'x'
I8
sg17
g18
((ltRp1497
sg20
Nsg21
Nsbs(I11
I14
tp1498
g1
(g14
g3
NtRp1499
(dp1500
S'y'
I14
sS'x'
I11
sg17
g18
((ltRp1501
sg20
Nsg21
Nsbs(I9
I18
tp1502
g1
(g14
g3
NtRp1503
(dp1504
S'y'
I18
sS'x'
I9
sg17
g18
((ltRp1505
sg20
Nsg21
Nsbs(I14
I9
tp1506
g1
(g14
g3
NtRp1507
(dp1508
S'y'
I9
sS'x'
I14
sg17
g18
((ltRp1509
sg20
Nsg21
Nsbs(I12
I9
tp1510
g1
(g14
g3
NtRp1511
(dp1512
S'y'
I9
sS'x'
I12
sg17
g18
((ltRp1513
sg20
Nsg21
Nsbs(I1
I20
tp1514
g1
(g14
g3
NtRp1515
(dp1516
S'y'
I20
sS'x'
I1
sg17
g18
((ltRp1517
sg20
Nsg21
Nsbs(I15
I12
tp1518
g1
(g14
g3
NtRp1519
(dp1520
S'y'
I12
sS'x'
I15
sg17
g18
((ltRp1521
sg20
Nsg21
Nsbs(I13
I12
tp1522
g1
(g14
g3
NtRp1523
(dp1524
S'y'
I12
sS'x'
I13
sg17
g18
((ltRp1525
sg20
Nsg21
Nsbs(I2
I19
tp1526
g1
(g14
g3
NtRp1527
(dp1528
S'y'
I19
sS'x'
I2
sg17
g18
((ltRp1529
sg20
Nsg21
Nsbs(I0
I15
tp1530
g1
(g14
g3
NtRp1531
(dp1532
S'y'
I15
sS'x'
I0
sg17
g18
((ltRp1533
sg20
g7
sg21
Nsbs(I3
I10
tp1534
g1
(g14
g3
NtRp1535
(dp1536
S'y'
I10
sS'x'
I3
sg17
g18
((ltRp1537
sg20
Nsg21
Nsbs(I1
I14
tp1538
g1
(g14
g3
NtRp1539
(dp1540
S'y'
I14
sS'x'
I1
sg17
g18
((ltRp1541
sg20
Nsg21
Nsbs(I4
I13
tp1542
g1
(g14
g3
NtRp1543
(dp1544
S'y'
I13
sS'x'
I4
sg17
g18
((ltRp1545
sg20
Nsg21
Nsbs(I2
I13
tp1546
g1
(g14
g3
NtRp1547
(dp1548
S'y'
I13
sS'x'
I2
sg17
g18
((ltRp1549
sg20
Nsg21
Nsbs(I5
I0
tp1550
g1
(g14
g3
NtRp1551
(dp1552
S'y'
I0
sS'x'
I5
sg17
g18
((ltRp1553
sg20
g9
sg21
Nsbs(I3
I16
tp1554
g1
(g14
g3
NtRp1555
(dp1556
S'y'
I16
sS'x'
I3
sg17
g18
((ltRp1557
sg20
Nsg21
Nsbs(I6
I15
tp1558
g1
(g14
g3
NtRp1559
(dp1560
S'y'
I15
sS'x'
I6
sg17
g18
((ltRp1561
sg20
Nsg21
Nsbs(I19
I21
tp1562
g1
(g14
g3
NtRp1563
(dp1564
S'y'
I21
sS'x'
I19
sg17
g18
((ltRp1565
sg20
Nsg21
Nsbs(I17
I5
tp1566
g1
(g14
g3
NtRp1567
(dp1568
S'y'
I5
sS'x'
I17
sg17
g18
((ltRp1569
sg20
Nsg21
Nsbs(I7
I14
tp1570
g1
(g14
g3
NtRp1571
(dp1572
S'y'
I14
sS'x'
I7
sg17
g18
((ltRp1573
sg20
Nsg21
Nsbs(I20
I22
tp1574
g1
(g14
g3
NtRp1575
(dp1576
S'y'
I22
sS'x'
I20
sg17
g18
((ltRp1577
sg20
Nsg21
Nsbs(I18
I2
tp1578
g1
(g14
g3
NtRp1579
(dp1580
S'y'
I2
sS'x'
I18
sg17
g18
((ltRp1581
sg20
Nsg21
Nsbs(I21
I23
tp1582
g1
(g14
g3
NtRp1583
(dp1584
S'y'
I23
sS'x'
I21
sg17
g18
((ltRp1585
sg20
g9
sg21
Nsbs(I22
I4
tp1586
g1
(g14
g3
NtRp1587
(dp1588
S'y'
I4
sS'x'
I22
sg17
g18
((ltRp1589
sg20
Nsg21
Nsbs(I23
I1
tp1590
g1
(g14
g3
NtRp1591
(dp1592
S'y'
I1
sS'x'
I23
sg17
g18
((ltRp1593
sg20
g7
sg21
Nsbs(I11
I7
tp1594
g1
(g14
g3
NtRp1595
(dp1596
S'y'
I7
sS'x'
I11
sg17
g18
((ltRp1597
sg20
Nsg21
Nsbs(I14
I16
tp1598
g1
(g14
g3
NtRp1599
(dp1600
S'y'
I16
sS'x'
I14
sg17
g18
((ltRp1601
sg20
Nsg21
Nsbs(I12
I0
tp1602
g1
(g14
g3
NtRp1603
(dp1604
S'y'
I0
sS'x'
I12
sg17
g18
((ltRp1605
sg20
g9
sg21
Nsbs(I10
I16
tp1606
g1
(g14
g3
NtRp1607
(dp1608
S'y'
I16
sS'x'
I10
sg17
g18
((ltRp1609
sg20
Nsg21
Nsbs(I15
I21
tp1610
g1
(g14
g3
NtRp1611
(dp1612
S'y'
I21
sS'x'
I15
sg17
g18
((ltRp1613
sg20
Nsg21
Nsbs(I13
I5
tp1614
g1
(g14
g3
NtRp1615
(dp1616
S'y'
I5
sS'x'
I13
sg17
g18
((ltRp1617
sg20
Nsg21
Nsbs(I0
I6
tp1618
g1
(g14
g3
NtRp1619
(dp1620
S'y'
I6
sS'x'
I0
sg17
g18
((ltRp1621
sg20
g7
sg21
Nsbs(I1
I7
tp1622
g1
(g14
g3
NtRp1623
(dp1624
S'y'
I7
sS'x'
I1
sg17
g18
((ltRp1625
sg20
Nsg21
Nsbs(I2
I4
tp1626
g1
(g14
g3
NtRp1627
(dp1628
S'y'
I4
sS'x'
I2
sg17
g18
((ltRp1629
sg20
Nsg21
Nsbs(I5
I9
tp1630
g1
(g14
g3
NtRp1631
(dp1632
S'y'
I9
sS'x'
I5
sg17
g18
((ltRp1633
sg20
Nsg21
Nsbs(I6
I6
tp1634
g1
(g14
g3
NtRp1635
(dp1636
S'y'
I6
sS'x'
I6
sg17
g18
((ltRp1637
sg20
Nsg21
Nsbs(I4
I18
tp1638
g1
(g14
g3
NtRp1639
(dp1640
S'y'
I18
sS'x'
I4
sg17
g18
((ltRp1641
sg20
Nsg21
Nsbs(I7
I7
tp1642
g1
(g14
g3
NtRp1643
(dp1644
S'y'
I7
sS'x'
I7
sg17
g18
((ltRp1645
sg20
Nsg21
Nsbs(I5
I19
tp1646
g1
(g14
g3
NtRp1647
(dp1648
S'y'
I19
sS'x'
I5
sg17
g18
((ltRp1649
sg20
Nsg21
Nsbs(I16
I21
tp1650
g1
(g14
g3
NtRp1651
(dp1652
S'y'
I21
sS'x'
I16
sg17
g18
((ltRp1653
sg20
Nsg21
Nsbs(I21
I16
tp1654
g1
(g14
g3
NtRp1655
(dp1656
S'y'
I16
sS'x'
I21
sg17
g18
((ltRp1657
sg20
Nsg21
Nsbs(I19
I0
tp1658
g1
(g14
g3
NtRp1659
(dp1660
S'y'
I0
sS'x'
I19
sg17
g18
((ltRp1661
sg20
g9
sg21
Nsbs(I17
I16
tp1662
g1
(g14
g3
NtRp1663
(dp1664
S'y'
I16
sS'x'
I17
sg17
g18
((ltRp1665
sg20
Nsg21
Nsbs(I18
I23
tp1666
g1
(g14
g3
NtRp1667
(dp1668
S'y'
I23
sS'x'
I18
sg17
g18
((ltRp1669
sg20
g9
sg21
Nsbs(I8
I1
tp1670
g1
(g14
g3
NtRp1671
(dp1672
S'y'
I1
sS'x'
I8
sg17
g18
((ltRp1673
sg20
Nsg21
Nsbs(I15
I18
tp1674
g1
(g14
g3
NtRp1675
(dp1676
S'y'
I18
sS'x'
I15
sg17
g18
((ltRp1677
sg20
Nsg21
Nsbs(I11
I18
tp1678
g1
(g14
g3
NtRp1679
(dp1680
S'y'
I18
sS'x'
I11
sg17
g18
((ltRp1681
sg20
Nsg21
Nsbs(I12
I21
tp1682
g1
(g14
g3
NtRp1683
(dp1684
S'y'
I21
sS'x'
I12
sg17
g18
((ltRp1685
sg20
Nsg21
Nsbs(I16
I12
tp1686
g1
(g14
g3
NtRp1687
(dp1688
S'y'
I12
sS'x'
I16
sg17
g18
((ltRp1689
sg20
Nsg21
Nsbs(I6
I19
tp1690
g1
(g14
g3
NtRp1691
(dp1692
S'y'
I19
sS'x'
I6
sg17
g18
((ltRp1693
sg20
Nsg21
Nsbs(I19
I9
tp1694
g1
(g14
g3
NtRp1695
(dp1696
S'y'
I9
sS'x'
I19
sg17
g18
((ltRp1697
sg20
Nsg21
Nsbs(I17
I9
tp1698
g1
(g14
g3
NtRp1699
(dp1700
S'y'
I9
sS'x'
I17
sg17
g18
((ltRp1701
sg20
Nsg21
Nsbs(I22
I22
tp1702
g1
(g14
g3
NtRp1703
(dp1704
S'y'
I22
sS'x'
I22
sg17
g18
((ltRp1705
sg20
Nsg21
Nsbs(I20
I2
tp1706
g1
(g14
g3
NtRp1707
(dp1708
S'y'
I2
sS'x'
I20
sg17
g18
((ltRp1709
sg20
Nsg21
Nsbs(I18
I14
tp1710
g1
(g14
g3
NtRp1711
(dp1712
S'y'
I14
sS'x'
I18
sg17
g18
((ltRp1713
sg20
Nsg21
Nsbs(I21
I3
tp1714
g1
(g14
g3
NtRp1715
(dp1716
S'y'
I3
sS'x'
I21
sg17
g18
((ltRp1717
sg20
Nsg21
Nsbs(I8
I8
tp1718
g1
(g14
g3
NtRp1719
(dp1720
S'y'
I8
sS'x'
I8
sg17
g18
((ltRp1721
sg20
Nsg21
Nsbs(I22
I8
tp1722
g1
(g14
g3
NtRp1723
(dp1724
S'y'
I8
sS'x'
I22
sg17
g18
((ltRp1725
sg20
Nsg21
Nsbs(I9
I5
tp1726
g1
(g14
g3
NtRp1727
(dp1728
S'y'
I5
sS'x'
I9
sg17
g18
((ltRp1729
sg20
Nsg21
Nsbs(I23
I13
tp1730
g1
(g14
g3
NtRp1731
(dp1732
S'y'
I13
sS'x'
I23
sg17
g18
((ltRp1733
sg20
g7
sg21
Nsbs(I10
I2
tp1734
g1
(g14
g3
NtRp1735
(dp1736
S'y'
I2
sS'x'
I10
sg17
g18
((ltRp1737
sg20
Nsg21
Nsbs(I11
I11
tp1738
g1
(g14
g3
NtRp1739
(dp1740
S'y'
I11
sS'x'
I11
sg17
g18
((ltRp1741
sg20
Nsg21
Nsbs(I0
I20
tp1742
g1
(g14
g3
NtRp1743
(dp1744
S'y'
I20
sS'x'
I0
sg17
g18
((ltRp1745
sg20
g7
sg21
Nsbs(I14
I4
tp1746
g1
(g14
g3
NtRp1747
(dp1748
S'y'
I4
sS'x'
I14
sg17
g18
((ltRp1749
sg20
Nsg21
Nsbs(I12
I12
tp1750
g1
(g14
g3
NtRp1751
(dp1752
S'y'
I12
sS'x'
I12
sg17
g18
((ltRp1753
sg20
Nsg21
Nsbs(I1
I17
tp1754
g1
(g14
g3
NtRp1755
(dp1756
S'y'
I17
sS'x'
I1
sg17
g18
((ltRp1757
sg20
Nsg21
Nsbs(I15
I1
tp1758
g1
(g14
g3
NtRp1759
(dp1760
S'y'
I1
sS'x'
I15
sg17
g18
((ltRp1761
sg20
Nsg21
Nsbs(I13
I17
tp1762
g1
(g14
g3
NtRp1763
(dp1764
S'y'
I17
sS'x'
I13
sg17
g18
((ltRp1765
sg20
Nsg21
Nsbs(I2
I22
tp1766
g1
(g14
g3
NtRp1767
(dp1768
S'y'
I22
sS'x'
I2
sg17
g18
((ltRp1769
sg20
Nsg21
Nsbs(I0
I10
tp1770
g1
(g14
g3
NtRp1771
(dp1772
S'y'
I10
sS'x'
I0
sg17
g18
((ltRp1773
sg20
g7
sg21
Nsbs(I3
I7
tp1774
g1
(g14
g3
NtRp1775
(dp1776
S'y'
I7
sS'x'
I3
sg17
g18
((ltRp1777
sg20
Nsg21
Nsbs(I1
I11
tp1778
g1
(g14
g3
NtRp1779
(dp1780
S'y'
I11
sS'x'
I1
sg17
g18
((ltRp1781
sg20
Nsg21
Nsbs(I4
I0
tp1782
g1
(g14
g3
NtRp1783
(dp1784
S'y'
I0
sS'x'
I4
sg17
g18
((ltRp1785
sg20
g9
sg21
Nsbs(I5
I5
tp1786
g1
(g14
g3
NtRp1787
(dp1788
S'y'
I5
sS'x'
I5
sg17
g18
((ltRp1789
sg20
Nsg21
Nsbs(I16
I3
tp1790
g1
(g14
g3
NtRp1791
(dp1792
S'y'
I3
sS'x'
I16
sg17
g18
((ltRp1793
sg20
Nsg21
Nsbs(I6
I10
tp1794
g1
(g14
g3
NtRp1795
(dp1796
S'y'
I10
sS'x'
I6
sg17
g18
((ltRp1797
sg20
Nsg21
Nsbs(I19
I14
tp1798
g1
(g14
g3
NtRp1799
(dp1800
S'y'
I14
sS'x'
I19
sg17
g18
((ltRp1801
sg20
Nsg21
Nsbs(I17
I2
tp1802
g1
(g14
g3
NtRp1803
(dp1804
S'y'
I2
sS'x'
I17
sg17
g18
((ltRp1805
sg20
Nsg21
Nsbs(I7
I19
tp1806
g1
(g14
g3
NtRp1807
(dp1808
S'y'
I19
sS'x'
I7
sg17
g18
((ltRp1809
sg20
Nsg21
Nsbs(I20
I9
tp1810
g1
(g14
g3
NtRp1811
(dp1812
S'y'
I9
sS'x'
I20
sg17
g18
((ltRp1813
sg20
Nsg21
Nsbs(I18
I9
tp1814
g1
(g14
g3
NtRp1815
(dp1816
S'y'
I9
sS'x'
I18
sg17
g18
((ltRp1817
sg20
Nsg21
Nsbs(I21
I12
tp1818
g1
(g14
g3
NtRp1819
(dp1820
S'y'
I12
sS'x'
I21
sg17
g18
((ltRp1821
sg20
Nsg21
Nsbs(I8
I15
tp1822
g1
(g14
g3
NtRp1823
(dp1824
S'y'
I15
sS'x'
I8
sg17
g18
((ltRp1825
sg20
Nsg21
Nsbs(I22
I3
tp1826
g1
(g14
g3
NtRp1827
(dp1828
S'y'
I3
sS'x'
I22
sg17
g18
((ltRp1829
sg20
Nsg21
Nsbs(I9
I14
tp1830
g1
(g14
g3
NtRp1831
(dp1832
S'y'
I14
sS'x'
I9
sg17
g18
((ltRp1833
sg20
Nsg21
Nsbs(I23
I10
tp1834
g1
(g14
g3
NtRp1835
(dp1836
S'y'
I10
sS'x'
I23
sg17
g18
((ltRp1837
sg20
g7
sg21
Nsbs(I10
I13
tp1838
g1
(g14
g3
NtRp1839
(dp1840
S'y'
I13
sS'x'
I10
sg17
g18
((ltRp1841
sg20
Nsg21
Nsbs(I8
I21
tp1842
g1
(g14
g3
NtRp1843
(dp1844
S'y'
I21
sS'x'
I8
sg17
g18
((ltRp1845
sg20
Nsg21
Nsbs(I11
I0
tp1846
g1
(g14
g3
NtRp1847
(dp1848
S'y'
I0
sS'x'
I11
sg17
g18
((ltRp1849
sg20
g9
sg21
Nsbs(I9
I16
tp1850
g1
(g14
g3
NtRp1851
(dp1852
S'y'
I16
sS'x'
I9
sg17
g18
((ltRp1853
sg20
Nsg21
Nsbs(I14
I15
tp1854
g1
(g14
g3
NtRp1855
(dp1856
S'y'
I15
sS'x'
I14
sg17
g18
((ltRp1857
sg20
Nsg21
Nsbs(I12
I11
tp1858
g1
(g14
g3
NtRp1859
(dp1860
S'y'
I11
sS'x'
I12
sg17
g18
((ltRp1861
sg20
Nsg21
Nsbs(I10
I23
tp1862
g1
(g14
g3
NtRp1863
(dp1864
S'y'
I23
sS'x'
I10
sg17
g18
((ltRp1865
sg20
g9
sg21
Nsbs(I15
I14
tp1866
g1
(g14
g3
NtRp1867
(dp1868
S'y'
I14
sS'x'
I15
sg17
g18
((ltRp1869
sg20
Nsg21
Nsbs(I13
I10
tp1870
g1
(g14
g3
NtRp1871
(dp1872
S'y'
I10
sS'x'
I13
sg17
g18
((ltRp1873
sg20
Nsg21
Nsbs(I2
I17
tp1874
g1
(g14
g3
NtRp1875
(dp1876
S'y'
I17
sS'x'
I2
sg17
g18
((ltRp1877
sg20
Nsg21
Nsbs(I0
I1
tp1878
g1
(g14
g3
NtRp1879
(dp1880
S'y'
I1
sS'x'
I0
sg17
g18
((ltRp1881
sg20
g7
sg21
Nsbs(I3
I12
tp1882
g1
(g14
g3
NtRp1883
(dp1884
S'y'
I12
sS'x'
I3
sg17
g18
((ltRp1885
sg20
Nsg21
Nsbs(I1
I12
tp1886
g1
(g14
g3
NtRp1887
(dp1888
S'y'
I12
sS'x'
I1
sg17
g18
((ltRp1889
sg20
Nsg21
Nsbs(I4
I15
tp1890
g1
(g14
g3
NtRp1891
(dp1892
S'y'
I15
sS'x'
I4
sg17
g18
((ltRp1893
sg20
Nsg21
Nsbs(I2
I11
tp1894
g1
(g14
g3
NtRp1895
(dp1896
S'y'
I11
sS'x'
I2
sg17
g18
((ltRp1897
sg20
Nsg21
Nsbs(I5
I14
tp1898
g1
(g14
g3
NtRp1899
(dp1900
S'y'
I14
sS'x'
I5
sg17
g18
((ltRp1901
sg20
Nsg21
Nsbs(I3
I18
tp1902
g1
(g14
g3
NtRp1903
(dp1904
S'y'
I18
sS'x'
I3
sg17
g18
((ltRp1905
sg20
Nsg21
Nsbs(I6
I13
tp1906
g1
(g14
g3
NtRp1907
(dp1908
S'y'
I13
sS'x'
I6
sg17
g18
((ltRp1909
sg20
Nsg21
Nsbs(I4
I21
tp1910
g1
(g14
g3
NtRp1911
(dp1912
S'y'
I21
sS'x'
I4
sg17
g18
((ltRp1913
sg20
Nsg21
Nsbs(I19
I23
tp1914
g1
(g14
g3
NtRp1915
(dp1916
S'y'
I23
sS'x'
I19
sg17
g18
((ltRp1917
sg20
g9
sg21
Nsbs(I7
I8
tp1918
g1
(g14
g3
NtRp1919
(dp1920
S'y'
I8
sS'x'
I7
sg17
g18
((ltRp1921
sg20
Nsg21
Nsbs(I20
I16
tp1922
g1
(g14
g3
NtRp1923
(dp1924
S'y'
I16
sS'x'
I20
sg17
g18
((ltRp1925
sg20
Nsg21
Nsbs(I18
I0
tp1926
g1
(g14
g3
NtRp1927
(dp1928
S'y'
I0
sS'x'
I18
sg17
g18
((ltRp1929
sg20
g9
sg21
Nsbs(I16
I16
tp1930
g1
(g14
g3
NtRp1931
(dp1932
S'y'
I16
sS'x'
I16
sg17
g18
((ltRp1933
sg20
Nsg21
Nsbs(I21
I21
tp1934
g1
(g14
g3
NtRp1935
(dp1936
S'y'
I21
sS'x'
I21
sg17
g18
((ltRp1937
sg20
Nsg21
Nsbs(I23
I3
tp1938
g1
(g14
g3
NtRp1939
(dp1940
S'y'
I3
sS'x'
I23
sg17
g18
((ltRp1941
sg20
g7
sg21
Nsbs(I14
I22
tp1942
g1
(g14
g3
NtRp1943
(dp1944
S'y'
I22
sS'x'
I14
sg17
g18
((ltRp1945
sg20
Nsg21
Nsbs(I12
I2
tp1946
g1
(g14
g3
NtRp1947
(dp1948
S'y'
I2
sS'x'
I12
sg17
g18
((ltRp1949
sg20
Nsg21
Nsbs(I15
I23
tp1950
g1
(g14
g3
NtRp1951
(dp1952
S'y'
I23
sS'x'
I15
sg17
g18
((ltRp1953
sg20
g9
sg21
Nsbs(I13
I3
tp1954
g1
(g14
g3
NtRp1955
(dp1956
S'y'
I3
sS'x'
I13
sg17
g18
((ltRp1957
sg20
Nsg21
Nsbs(I1
I5
tp1958
g1
(g14
g3
NtRp1959
(dp1960
S'y'
I5
sS'x'
I1
sg17
g18
((ltRp1961
sg20
Nsg21
Nsbs(I2
I2
tp1962
g1
(g14
g3
NtRp1963
(dp1964
S'y'
I2
sS'x'
I2
sg17
g18
((ltRp1965
sg20
Nsg21
Nsbs(I6
I4
tp1966
g1
(g14
g3
NtRp1967
(dp1968
S'y'
I4
sS'x'
I6
sg17
g18
((ltRp1969
sg20
Nsg21
Nsbs(I7
I1
tp1970
g1
(g14
g3
NtRp1971
(dp1972
S'y'
I1
sS'x'
I7
sg17
g18
((ltRp1973
sg20
Nsg21
Nsbs(I5
I17
tp1974
g1
(g14
g3
NtRp1975
(dp1976
S'y'
I17
sS'x'
I5
sg17
g18
((ltRp1977
sg20
Nsg21
Nsbs(I16
I23
tp1978
g1
(g14
g3
NtRp1979
(dp1980
S'y'
I23
sS'x'
I16
sg17
g18
((ltRp1981
sg20
g9
sg21
Nsbs(I19
I2
tp1982
g1
(g14
g3
NtRp1983
(dp1984
S'y'
I2
sS'x'
I19
sg17
g18
((ltRp1985
sg20
Nsg21
Nsbs(I17
I22
tp1986
g1
(g14
g3
NtRp1987
(dp1988
S'y'
I22
sS'x'
I17
sg17
g18
((ltRp1989
sg20
Nsg21
Nsbs(I20
I5
tp1990
g1
(g14
g3
NtRp1991
(dp1992
S'y'
I5
sS'x'
I20
sg17
g18
((ltRp1993
sg20
Nsg21
Nsbs(I18
I21
tp1994
g1
(g14
g3
NtRp1995
(dp1996
S'y'
I21
sS'x'
I18
sg17
g18
((ltRp1997
sg20
Nsg21
Nsbs(I8
I3
tp1998
g1
(g14
g3
NtRp1999
(dp2000
S'y'
I3
sS'x'
I8
sg17
g18
((ltRp2001
sg20
Nsg21
Nsbs(I9
I2
tp2002
g1
(g14
g3
NtRp2003
(dp2004
S'y'
I2
sS'x'
I9
sg17
g18
((ltRp2005
sg20
Nsg21
Nsbs(I11
I20
tp2006
g1
(g14
g3
NtRp2007
(dp2008
S'y'
I20
sS'x'
I11
sg17
g18
((ltRp2009
sg20
Nsg21
Nsbs(I14
I3
tp2010
g1
(g14
g3
NtRp2011
(dp2012
S'y'
I3
sS'x'
I14
sg17
g18
((ltRp2013
sg20
Nsg21
Nsbs(I12
I23
tp2014
g1
(g14
g3
NtRp2015
(dp2016
S'y'
I23
sS'x'
I12
sg17
g18
((ltRp2017
sg20
g9
sg21
Nsbs(I13
I22
tp2018
g1
(g14
g3
NtRp2019
(dp2020
S'y'
I22
sS'x'
I13
sg17
g18
((ltRp2021
sg20
Nsg21
Nsbs(I3
I0
tp2022
g1
(g14
g3
NtRp2023
(dp2024
S'y'
I0
sS'x'
I3
sg17
g18
((ltRp2025
sg20
g9
sg21
Nsbs(I16
I14
tp2026
g1
(g14
g3
NtRp2027
(dp2028
S'y'
I14
sS'x'
I16
sg17
g18
((ltRp2029
sg20
Nsg21
Nsbs(I6
I17
tp2030
g1
(g14
g3
NtRp2031
(dp2032
S'y'
I17
sS'x'
I6
sg17
g18
((ltRp2033
sg20
Nsg21
Nsbs(I19
I11
tp2034
g1
(g14
g3
NtRp2035
(dp2036
S'y'
I11
sS'x'
I19
sg17
g18
((ltRp2037
sg20
Nsg21
Nsbs(I17
I15
tp2038
g1
(g14
g3
NtRp2039
(dp2040
S'y'
I15
sS'x'
I17
sg17
g18
((ltRp2041
sg20
Nsg21
Nsbs(I7
I20
tp2042
g1
(g14
g3
NtRp2043
(dp2044
S'y'
I20
sS'x'
I7
sg17
g18
((ltRp2045
sg20
Nsg21
Nsbs(I22
I20
tp2046
g1
(g14
g3
NtRp2047
(dp2048
S'y'
I20
sS'x'
I22
sg17
g18
((ltRp2049
sg20
Nsg21
Nsbs(I20
I12
tp2050
g1
(g14
g3
NtRp2051
(dp2052
S'y'
I12
sS'x'
I20
sg17
g18
((ltRp2053
sg20
Nsg21
Nsbs(I18
I12
tp2054
g1
(g14
g3
NtRp2055
(dp2056
S'y'
I12
sS'x'
I18
sg17
g18
((ltRp2057
sg20
Nsg21
Nsbs(I23
I17
tp2058
g1
(g14
g3
NtRp2059
(dp2060
S'y'
I17
sS'x'
I23
sg17
g18
((ltRp2061
sg20
g7
sg21
Nsbs(I21
I1
tp2062
g1
(g14
g3
NtRp2063
(dp2064
S'y'
I1
sS'x'
I21
sg17
g18
((ltRp2065
sg20
Nsg21
Nsbs(I8
I10
tp2066
g1
(g14
g3
NtRp2067
(dp2068
S'y'
I10
sS'x'
I8
sg17
g18
((ltRp2069
sg20
Nsg21
Nsbs(I22
I14
tp2070
g1
(g14
g3
NtRp2071
(dp2072
S'y'
I14
sS'x'
I22
sg17
g18
((ltRp2073
sg20
Nsg21
Nsbs(I9
I11
tp2074
g1
(g14
g3
NtRp2075
(dp2076
S'y'
I11
sS'x'
I9
sg17
g18
((ltRp2077
sg20
Nsg21
Nsbs(I23
I15
tp2078
g1
(g14
g3
NtRp2079
(dp2080
S'y'
I15
sS'x'
I23
sg17
g18
((ltRp2081
sg20
g7
sg21
Nsbs(I10
I0
tp2082
g1
(g14
g3
NtRp2083
(dp2084
S'y'
I0
sS'x'
I10
sg17
g18
((ltRp2085
sg20
g9
sg21
Nsbs(I8
I16
tp2086
g1
(g14
g3
NtRp2087
(dp2088
S'y'
I16
sS'x'
I8
sg17
g18
((ltRp2089
sg20
Nsg21
Nsbs(I11
I13
tp2090
g1
(g14
g3
NtRp2091
(dp2092
S'y'
I13
sS'x'
I11
sg17
g18
((ltRp2093
sg20
Nsg21
Nsbs(I0
I22
tp2094
g1
(g14
g3
NtRp2095
(dp2096
S'y'
I22
sS'x'
I0
sg17
g18
((ltRp2097
sg20
g7
sg21
Nsbs(I14
I10
tp2098
g1
(g14
g3
NtRp2099
(dp2100
S'y'
I10
sS'x'
I14
sg17
g18
((ltRp2101
sg20
Nsg21
Nsbs(I12
I14
tp2102
g1
(g14
g3
NtRp2103
(dp2104
S'y'
I14
sS'x'
I12
sg17
g18
((ltRp2105
sg20
Nsg21
Nsbs(I1
I23
tp2106
g1
(g14
g3
NtRp2107
(dp2108
S'y'
I23
sS'x'
I1
sg17
g18
((ltRp2109
sg20
g9
sg21
Nsbs(I15
I3
tp2110
g1
(g14
g3
NtRp2111
(dp2112
S'y'
I3
sS'x'
I15
sg17
g18
((ltRp2113
sg20
Nsg21
Nsbs(I13
I15
tp2114
g1
(g14
g3
NtRp2115
(dp2116
S'y'
I15
sS'x'
I13
sg17
g18
((ltRp2117
sg20
Nsg21
Nsbs(I2
I20
tp2118
g1
(g14
g3
NtRp2119
(dp2120
S'y'
I20
sS'x'
I2
sg17
g18
((ltRp2121
sg20
Nsg21
Nsbs(I0
I12
tp2122
g1
(g14
g3
NtRp2123
(dp2124
S'y'
I12
sS'x'
I0
sg17
g18
((ltRp2125
sg20
g7
sg21
Nsbs(I3
I9
tp2126
g1
(g14
g3
NtRp2127
(dp2128
S'y'
I9
sS'x'
I3
sg17
g18
((ltRp2129
sg20
Nsg21
Nsbs(I1
I9
tp2130
g1
(g14
g3
NtRp2131
(dp2132
S'y'
I9
sS'x'
I1
sg17
g18
((ltRp2133
sg20
Nsg21
Nsbs(I4
I2
tp2134
g1
(g14
g3
NtRp2135
(dp2136
S'y'
I2
sS'x'
I4
sg17
g18
((ltRp2137
sg20
Nsg21
Nsbs(I2
I14
tp2138
g1
(g14
g3
NtRp2139
(dp2140
S'y'
I14
sS'x'
I2
sg17
g18
((ltRp2141
sg20
Nsg21
Nsbs(I5
I3
tp2142
g1
(g14
g3
NtRp2143
(dp2144
S'y'
I3
sS'x'
I5
sg17
g18
((ltRp2145
sg20
Nsg21
Nsbs(I16
I5
tp2146
g1
(g14
g3
NtRp2147
(dp2148
S'y'
I5
sS'x'
I16
sg17
g18
((ltRp2149
sg20
Nsg21
Nsbs(I6
I8
tp2150
g1
(g14
g3
NtRp2151
(dp2152
S'y'
I8
sS'x'
I6
sg17
g18
((ltRp2153
sg20
Nsg21
Nsbs(I19
I16
tp2154
g1
(g14
g3
NtRp2155
(dp2156
S'y'
I16
sS'x'
I19
sg17
g18
((ltRp2157
sg20
Nsg21
Nsbs(I17
I0
tp2158
g1
(g14
g3
NtRp2159
(dp2160
S'y'
I0
sS'x'
I17
sg17
g18
((ltRp2161
sg20
g9
sg21
Nsbs(I7
I13
tp2162
g1
(g14
g3
NtRp2163
(dp2164
S'y'
I13
sS'x'
I7
sg17
g18
((ltRp2165
sg20
Nsg21
Nsbs(I20
I11
tp2166
g1
(g14
g3
NtRp2167
(dp2168
S'y'
I11
sS'x'
I20
sg17
g18
((ltRp2169
sg20
Nsg21
Nsbs(I18
I7
tp2170
g1
(g14
g3
NtRp2171
(dp2172
S'y'
I7
sS'x'
I18
sg17
g18
((ltRp2173
sg20
Nsg21
Nsbs(I21
I10
tp2174
g1
(g14
g3
NtRp2175
(dp2176
S'y'
I10
sS'x'
I21
sg17
g18
((ltRp2177
sg20
Nsg21
Nsbs(I22
I1
tp2178
g1
(g14
g3
NtRp2179
(dp2180
S'y'
I1
sS'x'
I22
sg17
g18
((ltRp2181
sg20
Nsg21
Nsbs(I9
I12
tp2182
g1
(g14
g3
NtRp2183
(dp2184
S'y'
I12
sS'x'
I9
sg17
g18
((ltRp2185
sg20
Nsg21
Nsbs(I23
I4
tp2186
g1
(g14
g3
NtRp2187
(dp2188
S'y'
I4
sS'x'
I23
sg17
g18
((ltRp2189
sg20
g7
sg21
Nsbs(I10
I11
tp2190
g1
(g14
g3
NtRp2191
(dp2192
S'y'
I11
sS'x'
I10
sg17
g18
((ltRp2193
sg20
Nsg21
Nsbs(I8
I23
tp2194
g1
(g14
g3
NtRp2195
(dp2196
S'y'
I23
sS'x'
I8
sg17
g18
((ltRp2197
sg20
g9
sg21
Nsbs(I11
I2
tp2198
g1
(g14
g3
NtRp2199
(dp2200
S'y'
I2
sS'x'
I11
sg17
g18
((ltRp2201
sg20
Nsg21
Nsbs(I9
I22
tp2202
g1
(g14
g3
NtRp2203
(dp2204
S'y'
I22
sS'x'
I9
sg17
g18
((ltRp2205
sg20
Nsg21
Nsbs(I14
I13
tp2206
g1
(g14
g3
NtRp2207
(dp2208
S'y'
I13
sS'x'
I14
sg17
g18
((ltRp2209
sg20
Nsg21
Nsbs(I12
I5
tp2210
g1
(g14
g3
NtRp2211
(dp2212
S'y'
I5
sS'x'
I12
sg17
g18
((ltRp2213
sg20
Nsg21
Nsbs(I10
I21
tp2214
g1
(g14
g3
NtRp2215
(dp2216
S'y'
I21
sS'x'
I10
sg17
g18
((ltRp2217
sg20
Nsg21
Nsbs(I15
I8
tp2218
g1
(g14
g3
NtRp2219
(dp2220
S'y'
I8
sS'x'
I15
sg17
g18
((ltRp2221
sg20
Nsg21
Nsbs(I13
I8
tp2222
g1
(g14
g3
NtRp2223
(dp2224
S'y'
I8
sS'x'
I13
sg17
g18
((ltRp2225
sg20
Nsg21
Nsbs(I0
I3
tp2226
g1
(g14
g3
NtRp2227
(dp2228
S'y'
I3
sS'x'
I0
sg17
g18
((ltRp2229
sg20
g7
sg21
Nsbs(I3
I14
tp2230
g1
(g14
g3
NtRp2231
(dp2232
S'y'
I14
sS'x'
I3
sg17
g18
((ltRp2233
sg20
Nsg21
Nsbs(I1
I2
tp2234
g1
(g14
g3
NtRp2235
(dp2236
S'y'
I2
sS'x'
I1
sg17
g18
((ltRp2237
sg20
Nsg21
Nsbs(I4
I9
tp2238
g1
(g14
g3
NtRp2239
(dp2240
S'y'
I9
sS'x'
I4
sg17
g18
((ltRp2241
sg20
Nsg21
Nsbs(I2
I9
tp2242
g1
(g14
g3
NtRp2243
(dp2244
S'y'
I9
sS'x'
I2
sg17
g18
((ltRp2245
sg20
Nsg21
Nsbs(I5
I12
tp2246
g1
(g14
g3
NtRp2247
(dp2248
S'y'
I12
sS'x'
I5
sg17
g18
((ltRp2249
sg20
Nsg21
Nsbs(I3
I20
tp2250
g1
(g14
g3
NtRp2251
(dp2252
S'y'
I20
sS'x'
I3
sg17
g18
((ltRp2253
sg20
Nsg21
Nsbs(I6
I3
tp2254
g1
(g14
g3
NtRp2255
(dp2256
S'y'
I3
sS'x'
I6
sg17
g18
((ltRp2257
sg20
Nsg21
Nsbs(I4
I23
tp2258
g1
(g14
g3
NtRp2259
(dp2260
S'y'
I23
sS'x'
I4
sg17
g18
((ltRp2261
sg20
g9
sg21
Nsbs(I7
I10
tp2262
g1
(g14
g3
NtRp2263
(dp2264
S'y'
I10
sS'x'
I7
sg17
g18
((ltRp2265
sg20
Nsg21
Nsbs(I5
I22
tp2266
g1
(g14
g3
NtRp2267
(dp2268
S'y'
I22
sS'x'
I5
sg17
g18
((ltRp2269
sg20
Nsg21
Nsbs(I20
I18
tp2270
g1
(g14
g3
NtRp2271
(dp2272
S'y'
I18
sS'x'
I20
sg17
g18
((ltRp2273
sg20
Nsg21
Nsbs(I16
I18
tp2274
g1
(g14
g3
NtRp2275
(dp2276
S'y'
I18
sS'x'
I16
sg17
g18
((ltRp2277
sg20
Nsg21
Nsbs(I21
I19
tp2278
g1
(g14
g3
NtRp2279
(dp2280
S'y'
I19
sS'x'
I21
sg17
g18
((ltRp2281
sg20
Nsg21
Nsbs(I17
I19
tp2282
g1
(g14
g3
NtRp2283
(dp2284
S'y'
I19
sS'x'
I17
sg17
g18
((ltRp2285
sg20
Nsg21
Nsbs(I14
I20
tp2286
g1
(g14
g3
NtRp2287
(dp2288
S'y'
I20
sS'x'
I14
sg17
g18
((ltRp2289
sg20
Nsg21
Nsbs(I15
I17
tp2290
g1
(g14
g3
NtRp2291
(dp2292
S'y'
I17
sS'x'
I15
sg17
g18
((ltRp2293
sg20
Nsg21
Nsbs(I13
I1
tp2294
g1
(g14
g3
NtRp2295
(dp2296
S'y'
I1
sS'x'
I13
sg17
g18
((ltRp2297
sg20
Nsg21
Nsbs(I11
I17
tp2298
g1
(g14
g3
NtRp2299
(dp2300
S'y'
I17
sS'x'
I11
sg17
g18
((ltRp2301
sg20
Nsg21
Nsbs(I2
I0
tp2302
g1
(g14
g3
NtRp2303
(dp2304
S'y'
I0
sS'x'
I2
sg17
g18
((ltRp2305
sg20
g9
sg21
NsbssS'id'
p2306
S'fc8d19b520a5104122850e42cc1c962f43bc24f3'
p2307
sS'size'
p2308
(I24
I24
tp2309
sb.