ccopy_reg
_reconstructor
p1
(cindex
Player
p2
c__builtin__
object
p3
NtRp4
(dp5
S'game_id'
p6
S'5f7415ab37474510713effa58be4d5033c278fb2'
p7
sS'secret'
p8
S'd3395867d05cc4c27f013d6e6f48d644e96d8241'
p9
sS'name'
p10
S'Alex'
p11
sb.